Archive member included to satisfy reference by file (symbol)

/home/zbtrs/ospp/userapps/sdk/rt-thread/lib/risc-v/rv64gc//librtthread.a(rt_channel.o)
                              (--whole-archive)
/home/zbtrs/ospp/userapps/sdk/rt-thread/lib/risc-v/rv64gc//librtthread.a(rt_completion.o)
                              (--whole-archive)
/home/zbtrs/ospp/userapps/sdk/rt-thread/lib/risc-v/rv64gc//librtthread.a(rt_device.o)
                              (--whole-archive)
/home/zbtrs/ospp/userapps/sdk/rt-thread/lib/risc-v/rv64gc//librtthread.a(rt_ipc.o)
                              (--whole-archive)
/home/zbtrs/ospp/userapps/sdk/rt-thread/lib/risc-v/rv64gc//librtthread.a(rt_net.o)
                              (--whole-archive)
/home/zbtrs/ospp/userapps/sdk/rt-thread/lib/risc-v/rv64gc//librtthread.a(rt_syscall.o)
                              (--whole-archive)
/home/zbtrs/ospp/userapps/sdk/rt-thread/lib/risc-v/rv64gc//librtthread.a(rt_thread.o)
                              (--whole-archive)
/home/zbtrs/ospp/userapps/sdk/rt-thread/lib/risc-v/rv64gc//librtthread.a(rt_timer.o)
                              (--whole-archive)
/home/zbtrs/ospp/userapps/sdk/rt-thread/lib/risc-v/rv64gc//librtthread.a(stub.o)
                              (--whole-archive)
/home/zbtrs/ospp/rt-thread/bsp/toolchain/riscv64-linux-musleabi_for_x86_64-pc-linux-gnu/bin/../lib/gcc/riscv64-unknown-linux-musl/10.1.0/../../../../riscv64-unknown-linux-musl/lib/libc.a(__libc_start_main.o)
                              /home/zbtrs/ospp/rt-thread/bsp/toolchain/riscv64-linux-musleabi_for_x86_64-pc-linux-gnu/bin/../lib/gcc/riscv64-unknown-linux-musl/10.1.0/../../../../riscv64-unknown-linux-musl/lib/crt1.o (__libc_start_main)
/home/zbtrs/ospp/rt-thread/bsp/toolchain/riscv64-linux-musleabi_for_x86_64-pc-linux-gnu/bin/../lib/gcc/riscv64-unknown-linux-musl/10.1.0/../../../../riscv64-unknown-linux-musl/lib/libc.a(__errno_location.o)
                              /home/zbtrs/ospp/userapps/sdk/rt-thread/lib/risc-v/rv64gc//librtthread.a(rt_net.o) (__errno_location)
/home/zbtrs/ospp/rt-thread/bsp/toolchain/riscv64-linux-musleabi_for_x86_64-pc-linux-gnu/bin/../lib/gcc/riscv64-unknown-linux-musl/10.1.0/../../../../riscv64-unknown-linux-musl/lib/libc.a(strerror.o)
                              /home/zbtrs/ospp/userapps/sdk/rt-thread/lib/risc-v/rv64gc//librtthread.a(rt_net.o) (strerror)
/home/zbtrs/ospp/rt-thread/bsp/toolchain/riscv64-linux-musleabi_for_x86_64-pc-linux-gnu/bin/../lib/gcc/riscv64-unknown-linux-musl/10.1.0/../../../../riscv64-unknown-linux-musl/lib/libc.a(exit.o)
                              /home/zbtrs/ospp/userapps/sdk/rt-thread/lib/risc-v/rv64gc//librtthread.a(stub.o) (exit)
/home/zbtrs/ospp/rt-thread/bsp/toolchain/riscv64-linux-musleabi_for_x86_64-pc-linux-gnu/bin/../lib/gcc/riscv64-unknown-linux-musl/10.1.0/../../../../riscv64-unknown-linux-musl/lib/libc.a(fcntl.o)
                              /home/zbtrs/ospp/userapps/sdk/rt-thread/lib/risc-v/rv64gc//librtthread.a(rt_net.o) (fcntl)
/home/zbtrs/ospp/rt-thread/bsp/toolchain/riscv64-linux-musleabi_for_x86_64-pc-linux-gnu/bin/../lib/gcc/riscv64-unknown-linux-musl/10.1.0/../../../../riscv64-unknown-linux-musl/lib/libc.a(libc.o)
                              /home/zbtrs/ospp/rt-thread/bsp/toolchain/riscv64-linux-musleabi_for_x86_64-pc-linux-gnu/bin/../lib/gcc/riscv64-unknown-linux-musl/10.1.0/../../../../riscv64-unknown-linux-musl/lib/libc.a(__libc_start_main.o) (__progname_full)
/home/zbtrs/ospp/rt-thread/bsp/toolchain/riscv64-linux-musleabi_for_x86_64-pc-linux-gnu/bin/../lib/gcc/riscv64-unknown-linux-musl/10.1.0/../../../../riscv64-unknown-linux-musl/lib/libc.a(syscall.o)
                              /home/zbtrs/ospp/userapps/sdk/rt-thread/lib/risc-v/rv64gc//librtthread.a(rt_channel.o) (syscall)
/home/zbtrs/ospp/rt-thread/bsp/toolchain/riscv64-linux-musleabi_for_x86_64-pc-linux-gnu/bin/../lib/gcc/riscv64-unknown-linux-musl/10.1.0/../../../../riscv64-unknown-linux-musl/lib/libc.a(syscall.o)
                              /home/zbtrs/ospp/rt-thread/bsp/toolchain/riscv64-linux-musleabi_for_x86_64-pc-linux-gnu/bin/../lib/gcc/riscv64-unknown-linux-musl/10.1.0/../../../../riscv64-unknown-linux-musl/lib/libc.a(fcntl.o) (get_rtt_syscall)
/home/zbtrs/ospp/rt-thread/bsp/toolchain/riscv64-linux-musleabi_for_x86_64-pc-linux-gnu/bin/../lib/gcc/riscv64-unknown-linux-musl/10.1.0/../../../../riscv64-unknown-linux-musl/lib/libc.a(syscall_ret.o)
                              /home/zbtrs/ospp/rt-thread/bsp/toolchain/riscv64-linux-musleabi_for_x86_64-pc-linux-gnu/bin/../lib/gcc/riscv64-unknown-linux-musl/10.1.0/../../../../riscv64-unknown-linux-musl/lib/libc.a(fcntl.o) (__syscall_ret)
/home/zbtrs/ospp/rt-thread/bsp/toolchain/riscv64-linux-musleabi_for_x86_64-pc-linux-gnu/bin/../lib/gcc/riscv64-unknown-linux-musl/10.1.0/../../../../riscv64-unknown-linux-musl/lib/libc.a(__lctrans.o)
                              /home/zbtrs/ospp/rt-thread/bsp/toolchain/riscv64-linux-musleabi_for_x86_64-pc-linux-gnu/bin/../lib/gcc/riscv64-unknown-linux-musl/10.1.0/../../../../riscv64-unknown-linux-musl/lib/libc.a(strerror.o) (__lctrans)
/home/zbtrs/ospp/rt-thread/bsp/toolchain/riscv64-linux-musleabi_for_x86_64-pc-linux-gnu/bin/../lib/gcc/riscv64-unknown-linux-musl/10.1.0/../../../../riscv64-unknown-linux-musl/lib/libc.a(lite_malloc.o)
                              /home/zbtrs/ospp/userapps/sdk/rt-thread/lib/risc-v/rv64gc//librtthread.a(rt_net.o) (malloc)
/home/zbtrs/ospp/rt-thread/bsp/toolchain/riscv64-linux-musleabi_for_x86_64-pc-linux-gnu/bin/../lib/gcc/riscv64-unknown-linux-musl/10.1.0/../../../../riscv64-unknown-linux-musl/lib/libc.a(malloc.o)
                              /home/zbtrs/ospp/userapps/sdk/rt-thread/lib/risc-v/rv64gc//librtthread.a(rt_net.o) (free)
/home/zbtrs/ospp/rt-thread/bsp/toolchain/riscv64-linux-musleabi_for_x86_64-pc-linux-gnu/bin/../lib/gcc/riscv64-unknown-linux-musl/10.1.0/../../../../riscv64-unknown-linux-musl/lib/libc.a(getopt_long.o)
                              /tmp/cc2olldp.o (getopt_long)
/home/zbtrs/ospp/rt-thread/bsp/toolchain/riscv64-linux-musleabi_for_x86_64-pc-linux-gnu/bin/../lib/gcc/riscv64-unknown-linux-musl/10.1.0/../../../../riscv64-unknown-linux-musl/lib/libc.a(madvise.o)
                              /home/zbtrs/ospp/rt-thread/bsp/toolchain/riscv64-linux-musleabi_for_x86_64-pc-linux-gnu/bin/../lib/gcc/riscv64-unknown-linux-musl/10.1.0/../../../../riscv64-unknown-linux-musl/lib/libc.a(malloc.o) (__madvise)
/home/zbtrs/ospp/rt-thread/bsp/toolchain/riscv64-linux-musleabi_for_x86_64-pc-linux-gnu/bin/../lib/gcc/riscv64-unknown-linux-musl/10.1.0/../../../../riscv64-unknown-linux-musl/lib/libc.a(mmap.o)
                              /home/zbtrs/ospp/rt-thread/bsp/toolchain/riscv64-linux-musleabi_for_x86_64-pc-linux-gnu/bin/../lib/gcc/riscv64-unknown-linux-musl/10.1.0/../../../../riscv64-unknown-linux-musl/lib/libc.a(malloc.o) (__mmap)
/home/zbtrs/ospp/rt-thread/bsp/toolchain/riscv64-linux-musleabi_for_x86_64-pc-linux-gnu/bin/../lib/gcc/riscv64-unknown-linux-musl/10.1.0/../../../../riscv64-unknown-linux-musl/lib/libc.a(mremap.o)
                              /home/zbtrs/ospp/rt-thread/bsp/toolchain/riscv64-linux-musleabi_for_x86_64-pc-linux-gnu/bin/../lib/gcc/riscv64-unknown-linux-musl/10.1.0/../../../../riscv64-unknown-linux-musl/lib/libc.a(malloc.o) (__mremap)
/home/zbtrs/ospp/rt-thread/bsp/toolchain/riscv64-linux-musleabi_for_x86_64-pc-linux-gnu/bin/../lib/gcc/riscv64-unknown-linux-musl/10.1.0/../../../../riscv64-unknown-linux-musl/lib/libc.a(munmap.o)
                              /home/zbtrs/ospp/rt-thread/bsp/toolchain/riscv64-linux-musleabi_for_x86_64-pc-linux-gnu/bin/../lib/gcc/riscv64-unknown-linux-musl/10.1.0/../../../../riscv64-unknown-linux-musl/lib/libc.a(malloc.o) (__munmap)
/home/zbtrs/ospp/rt-thread/bsp/toolchain/riscv64-linux-musleabi_for_x86_64-pc-linux-gnu/bin/../lib/gcc/riscv64-unknown-linux-musl/10.1.0/../../../../riscv64-unknown-linux-musl/lib/libc.a(mblen.o)
                              /home/zbtrs/ospp/rt-thread/bsp/toolchain/riscv64-linux-musleabi_for_x86_64-pc-linux-gnu/bin/../lib/gcc/riscv64-unknown-linux-musl/10.1.0/../../../../riscv64-unknown-linux-musl/lib/libc.a(getopt_long.o) (mblen)
/home/zbtrs/ospp/rt-thread/bsp/toolchain/riscv64-linux-musleabi_for_x86_64-pc-linux-gnu/bin/../lib/gcc/riscv64-unknown-linux-musl/10.1.0/../../../../riscv64-unknown-linux-musl/lib/libc.a(mbtowc.o)
                              /home/zbtrs/ospp/rt-thread/bsp/toolchain/riscv64-linux-musleabi_for_x86_64-pc-linux-gnu/bin/../lib/gcc/riscv64-unknown-linux-musl/10.1.0/../../../../riscv64-unknown-linux-musl/lib/libc.a(mblen.o) (mbtowc)
/home/zbtrs/ospp/rt-thread/bsp/toolchain/riscv64-linux-musleabi_for_x86_64-pc-linux-gnu/bin/../lib/gcc/riscv64-unknown-linux-musl/10.1.0/../../../../riscv64-unknown-linux-musl/lib/libc.a(accept.o)
                              /home/zbtrs/ospp/userapps/sdk/rt-thread/lib/risc-v/rv64gc//librtthread.a(rt_net.o) (accept)
/home/zbtrs/ospp/rt-thread/bsp/toolchain/riscv64-linux-musleabi_for_x86_64-pc-linux-gnu/bin/../lib/gcc/riscv64-unknown-linux-musl/10.1.0/../../../../riscv64-unknown-linux-musl/lib/libc.a(bind.o)
                              /home/zbtrs/ospp/userapps/sdk/rt-thread/lib/risc-v/rv64gc//librtthread.a(rt_net.o) (bind)
/home/zbtrs/ospp/rt-thread/bsp/toolchain/riscv64-linux-musleabi_for_x86_64-pc-linux-gnu/bin/../lib/gcc/riscv64-unknown-linux-musl/10.1.0/../../../../riscv64-unknown-linux-musl/lib/libc.a(connect.o)
                              /home/zbtrs/ospp/userapps/sdk/rt-thread/lib/risc-v/rv64gc//librtthread.a(rt_net.o) (connect)
/home/zbtrs/ospp/rt-thread/bsp/toolchain/riscv64-linux-musleabi_for_x86_64-pc-linux-gnu/bin/../lib/gcc/riscv64-unknown-linux-musl/10.1.0/../../../../riscv64-unknown-linux-musl/lib/libc.a(htonl.o)
                              /home/zbtrs/ospp/userapps/sdk/rt-thread/lib/risc-v/rv64gc//librtthread.a(rt_net.o) (htonl)
/home/zbtrs/ospp/rt-thread/bsp/toolchain/riscv64-linux-musleabi_for_x86_64-pc-linux-gnu/bin/../lib/gcc/riscv64-unknown-linux-musl/10.1.0/../../../../riscv64-unknown-linux-musl/lib/libc.a(htons.o)
                              /home/zbtrs/ospp/userapps/sdk/rt-thread/lib/risc-v/rv64gc//librtthread.a(rt_net.o) (htons)
/home/zbtrs/ospp/rt-thread/bsp/toolchain/riscv64-linux-musleabi_for_x86_64-pc-linux-gnu/bin/../lib/gcc/riscv64-unknown-linux-musl/10.1.0/../../../../riscv64-unknown-linux-musl/lib/libc.a(listen.o)
                              /home/zbtrs/ospp/userapps/sdk/rt-thread/lib/risc-v/rv64gc//librtthread.a(rt_net.o) (listen)
/home/zbtrs/ospp/rt-thread/bsp/toolchain/riscv64-linux-musleabi_for_x86_64-pc-linux-gnu/bin/../lib/gcc/riscv64-unknown-linux-musl/10.1.0/../../../../riscv64-unknown-linux-musl/lib/libc.a(setsockopt.o)
                              /home/zbtrs/ospp/userapps/sdk/rt-thread/lib/risc-v/rv64gc//librtthread.a(rt_net.o) (setsockopt)
/home/zbtrs/ospp/rt-thread/bsp/toolchain/riscv64-linux-musleabi_for_x86_64-pc-linux-gnu/bin/../lib/gcc/riscv64-unknown-linux-musl/10.1.0/../../../../riscv64-unknown-linux-musl/lib/libc.a(socket.o)
                              /home/zbtrs/ospp/userapps/sdk/rt-thread/lib/risc-v/rv64gc//librtthread.a(rt_net.o) (socket)
/home/zbtrs/ospp/rt-thread/bsp/toolchain/riscv64-linux-musleabi_for_x86_64-pc-linux-gnu/bin/../lib/gcc/riscv64-unknown-linux-musl/10.1.0/../../../../riscv64-unknown-linux-musl/lib/libc.a(rand.o)
                              /home/zbtrs/ospp/userapps/sdk/rt-thread/lib/risc-v/rv64gc//librtthread.a(rt_net.o) (srand)
/home/zbtrs/ospp/rt-thread/bsp/toolchain/riscv64-linux-musleabi_for_x86_64-pc-linux-gnu/bin/../lib/gcc/riscv64-unknown-linux-musl/10.1.0/../../../../riscv64-unknown-linux-musl/lib/libc.a(select.o)
                              /home/zbtrs/ospp/userapps/sdk/rt-thread/lib/risc-v/rv64gc//librtthread.a(rt_net.o) (select)
/home/zbtrs/ospp/rt-thread/bsp/toolchain/riscv64-linux-musleabi_for_x86_64-pc-linux-gnu/bin/../lib/gcc/riscv64-unknown-linux-musl/10.1.0/../../../../riscv64-unknown-linux-musl/lib/libc.a(perror.o)
                              /home/zbtrs/ospp/userapps/sdk/rt-thread/lib/risc-v/rv64gc//librtthread.a(rt_net.o) (perror)
/home/zbtrs/ospp/rt-thread/bsp/toolchain/riscv64-linux-musleabi_for_x86_64-pc-linux-gnu/bin/../lib/gcc/riscv64-unknown-linux-musl/10.1.0/../../../../riscv64-unknown-linux-musl/lib/libc.a(printf.o)
                              /home/zbtrs/ospp/userapps/sdk/rt-thread/lib/risc-v/rv64gc//librtthread.a(rt_net.o) (printf)
/home/zbtrs/ospp/rt-thread/bsp/toolchain/riscv64-linux-musleabi_for_x86_64-pc-linux-gnu/bin/../lib/gcc/riscv64-unknown-linux-musl/10.1.0/../../../../riscv64-unknown-linux-musl/lib/libc.a(puts.o)
                              /home/zbtrs/ospp/userapps/sdk/rt-thread/lib/risc-v/rv64gc//librtthread.a(rt_net.o) (puts)
/home/zbtrs/ospp/rt-thread/bsp/toolchain/riscv64-linux-musleabi_for_x86_64-pc-linux-gnu/bin/../lib/gcc/riscv64-unknown-linux-musl/10.1.0/../../../../riscv64-unknown-linux-musl/lib/libc.a(stderr.o)
                              /home/zbtrs/ospp/rt-thread/bsp/toolchain/riscv64-linux-musleabi_for_x86_64-pc-linux-gnu/bin/../lib/gcc/riscv64-unknown-linux-musl/10.1.0/../../../../riscv64-unknown-linux-musl/lib/libc.a(perror.o) (__stderr_FILE)
/home/zbtrs/ospp/rt-thread/bsp/toolchain/riscv64-linux-musleabi_for_x86_64-pc-linux-gnu/bin/../lib/gcc/riscv64-unknown-linux-musl/10.1.0/../../../../riscv64-unknown-linux-musl/lib/libc.a(stdout.o)
                              /home/zbtrs/ospp/rt-thread/bsp/toolchain/riscv64-linux-musleabi_for_x86_64-pc-linux-gnu/bin/../lib/gcc/riscv64-unknown-linux-musl/10.1.0/../../../../riscv64-unknown-linux-musl/lib/libc.a(printf.o) (__stdout_FILE)
/home/zbtrs/ospp/rt-thread/bsp/toolchain/riscv64-linux-musleabi_for_x86_64-pc-linux-gnu/bin/../lib/gcc/riscv64-unknown-linux-musl/10.1.0/../../../../riscv64-unknown-linux-musl/lib/libc.a(vfprintf.o)
                              /home/zbtrs/ospp/rt-thread/bsp/toolchain/riscv64-linux-musleabi_for_x86_64-pc-linux-gnu/bin/../lib/gcc/riscv64-unknown-linux-musl/10.1.0/../../../../riscv64-unknown-linux-musl/lib/libc.a(printf.o) (vfprintf)
/home/zbtrs/ospp/rt-thread/bsp/toolchain/riscv64-linux-musleabi_for_x86_64-pc-linux-gnu/bin/../lib/gcc/riscv64-unknown-linux-musl/10.1.0/../../../../riscv64-unknown-linux-musl/lib/libc.a(vsnprintf.o)
                              /home/zbtrs/ospp/userapps/sdk/rt-thread/lib/risc-v/rv64gc//librtthread.a(stub.o) (vsnprintf)
/home/zbtrs/ospp/rt-thread/bsp/toolchain/riscv64-linux-musleabi_for_x86_64-pc-linux-gnu/bin/../lib/gcc/riscv64-unknown-linux-musl/10.1.0/../../../../riscv64-unknown-linux-musl/lib/libc.a(vsprintf.o)
                              /home/zbtrs/ospp/userapps/sdk/rt-thread/lib/risc-v/rv64gc//librtthread.a(stub.o) (vsprintf)
/home/zbtrs/ospp/rt-thread/bsp/toolchain/riscv64-linux-musleabi_for_x86_64-pc-linux-gnu/bin/../lib/gcc/riscv64-unknown-linux-musl/10.1.0/../../../../riscv64-unknown-linux-musl/lib/libc.a(memcmp.o)
                              /home/zbtrs/ospp/userapps/sdk/rt-thread/lib/risc-v/rv64gc//librtthread.a(stub.o) (memcmp)
/home/zbtrs/ospp/rt-thread/bsp/toolchain/riscv64-linux-musleabi_for_x86_64-pc-linux-gnu/bin/../lib/gcc/riscv64-unknown-linux-musl/10.1.0/../../../../riscv64-unknown-linux-musl/lib/libc.a(memcpy.o)
                              /home/zbtrs/ospp/userapps/sdk/rt-thread/lib/risc-v/rv64gc//librtthread.a(stub.o) (memcpy)
/home/zbtrs/ospp/rt-thread/bsp/toolchain/riscv64-linux-musleabi_for_x86_64-pc-linux-gnu/bin/../lib/gcc/riscv64-unknown-linux-musl/10.1.0/../../../../riscv64-unknown-linux-musl/lib/libc.a(memmove.o)
                              /home/zbtrs/ospp/userapps/sdk/rt-thread/lib/risc-v/rv64gc//librtthread.a(stub.o) (memmove)
/home/zbtrs/ospp/rt-thread/bsp/toolchain/riscv64-linux-musleabi_for_x86_64-pc-linux-gnu/bin/../lib/gcc/riscv64-unknown-linux-musl/10.1.0/../../../../riscv64-unknown-linux-musl/lib/libc.a(memset.o)
                              /home/zbtrs/ospp/userapps/sdk/rt-thread/lib/risc-v/rv64gc//librtthread.a(rt_net.o) (memset)
/home/zbtrs/ospp/rt-thread/bsp/toolchain/riscv64-linux-musleabi_for_x86_64-pc-linux-gnu/bin/../lib/gcc/riscv64-unknown-linux-musl/10.1.0/../../../../riscv64-unknown-linux-musl/lib/libc.a(strcasecmp.o)
                              /home/zbtrs/ospp/userapps/sdk/rt-thread/lib/risc-v/rv64gc//librtthread.a(stub.o) (strcasecmp)
/home/zbtrs/ospp/rt-thread/bsp/toolchain/riscv64-linux-musleabi_for_x86_64-pc-linux-gnu/bin/../lib/gcc/riscv64-unknown-linux-musl/10.1.0/../../../../riscv64-unknown-linux-musl/lib/libc.a(strcmp.o)
                              /home/zbtrs/ospp/userapps/sdk/rt-thread/lib/risc-v/rv64gc//librtthread.a(stub.o) (strcmp)
/home/zbtrs/ospp/rt-thread/bsp/toolchain/riscv64-linux-musleabi_for_x86_64-pc-linux-gnu/bin/../lib/gcc/riscv64-unknown-linux-musl/10.1.0/../../../../riscv64-unknown-linux-musl/lib/libc.a(strdup.o)
                              /home/zbtrs/ospp/userapps/sdk/rt-thread/lib/risc-v/rv64gc//librtthread.a(stub.o) (strdup)
/home/zbtrs/ospp/rt-thread/bsp/toolchain/riscv64-linux-musleabi_for_x86_64-pc-linux-gnu/bin/../lib/gcc/riscv64-unknown-linux-musl/10.1.0/../../../../riscv64-unknown-linux-musl/lib/libc.a(strlen.o)
                              /home/zbtrs/ospp/userapps/sdk/rt-thread/lib/risc-v/rv64gc//librtthread.a(stub.o) (strlen)
/home/zbtrs/ospp/rt-thread/bsp/toolchain/riscv64-linux-musleabi_for_x86_64-pc-linux-gnu/bin/../lib/gcc/riscv64-unknown-linux-musl/10.1.0/../../../../riscv64-unknown-linux-musl/lib/libc.a(strncmp.o)
                              /home/zbtrs/ospp/userapps/sdk/rt-thread/lib/risc-v/rv64gc//librtthread.a(stub.o) (strncmp)
/home/zbtrs/ospp/rt-thread/bsp/toolchain/riscv64-linux-musleabi_for_x86_64-pc-linux-gnu/bin/../lib/gcc/riscv64-unknown-linux-musl/10.1.0/../../../../riscv64-unknown-linux-musl/lib/libc.a(strncpy.o)
                              /home/zbtrs/ospp/userapps/sdk/rt-thread/lib/risc-v/rv64gc//librtthread.a(stub.o) (strncpy)
/home/zbtrs/ospp/rt-thread/bsp/toolchain/riscv64-linux-musleabi_for_x86_64-pc-linux-gnu/bin/../lib/gcc/riscv64-unknown-linux-musl/10.1.0/../../../../riscv64-unknown-linux-musl/lib/libc.a(strnlen.o)
                              /home/zbtrs/ospp/rt-thread/bsp/toolchain/riscv64-linux-musleabi_for_x86_64-pc-linux-gnu/bin/../lib/gcc/riscv64-unknown-linux-musl/10.1.0/../../../../riscv64-unknown-linux-musl/lib/libc.a(vfprintf.o) (strnlen)
/home/zbtrs/ospp/rt-thread/bsp/toolchain/riscv64-linux-musleabi_for_x86_64-pc-linux-gnu/bin/../lib/gcc/riscv64-unknown-linux-musl/10.1.0/../../../../riscv64-unknown-linux-musl/lib/libc.a(strstr.o)
                              /home/zbtrs/ospp/userapps/sdk/rt-thread/lib/risc-v/rv64gc//librtthread.a(stub.o) (strstr)
/home/zbtrs/ospp/rt-thread/bsp/toolchain/riscv64-linux-musleabi_for_x86_64-pc-linux-gnu/bin/../lib/gcc/riscv64-unknown-linux-musl/10.1.0/../../../../riscv64-unknown-linux-musl/lib/libc.a(__lock.o)
                              /home/zbtrs/ospp/rt-thread/bsp/toolchain/riscv64-linux-musleabi_for_x86_64-pc-linux-gnu/bin/../lib/gcc/riscv64-unknown-linux-musl/10.1.0/../../../../riscv64-unknown-linux-musl/lib/libc.a(lite_malloc.o) (__lock)
/home/zbtrs/ospp/rt-thread/bsp/toolchain/riscv64-linux-musleabi_for_x86_64-pc-linux-gnu/bin/../lib/gcc/riscv64-unknown-linux-musl/10.1.0/../../../../riscv64-unknown-linux-musl/lib/libc.a(__syscall_cp.o)
                              /home/zbtrs/ospp/rt-thread/bsp/toolchain/riscv64-linux-musleabi_for_x86_64-pc-linux-gnu/bin/../lib/gcc/riscv64-unknown-linux-musl/10.1.0/../../../../riscv64-unknown-linux-musl/lib/libc.a(fcntl.o) (__syscall_cp)
/home/zbtrs/ospp/rt-thread/bsp/toolchain/riscv64-linux-musleabi_for_x86_64-pc-linux-gnu/bin/../lib/gcc/riscv64-unknown-linux-musl/10.1.0/../../../../riscv64-unknown-linux-musl/lib/libc.a(__wait.o)
                              /home/zbtrs/ospp/rt-thread/bsp/toolchain/riscv64-linux-musleabi_for_x86_64-pc-linux-gnu/bin/../lib/gcc/riscv64-unknown-linux-musl/10.1.0/../../../../riscv64-unknown-linux-musl/lib/libc.a(malloc.o) (__wait)
/home/zbtrs/ospp/rt-thread/bsp/toolchain/riscv64-linux-musleabi_for_x86_64-pc-linux-gnu/bin/../lib/gcc/riscv64-unknown-linux-musl/10.1.0/../../../../riscv64-unknown-linux-musl/lib/libc.a(pthread_create.o)
                              /home/zbtrs/ospp/userapps/sdk/rt-thread/lib/risc-v/rv64gc//librtthread.a(rt_thread.o) (__pthread_init_run)
/home/zbtrs/ospp/rt-thread/bsp/toolchain/riscv64-linux-musleabi_for_x86_64-pc-linux-gnu/bin/../lib/gcc/riscv64-unknown-linux-musl/10.1.0/../../../../riscv64-unknown-linux-musl/lib/libc.a(__set_thread_area.o)
                              /home/zbtrs/ospp/rt-thread/bsp/toolchain/riscv64-linux-musleabi_for_x86_64-pc-linux-gnu/bin/../lib/gcc/riscv64-unknown-linux-musl/10.1.0/../../../../riscv64-unknown-linux-musl/lib/libc.a(pthread_create.o) (__set_thread_area)
/home/zbtrs/ospp/rt-thread/bsp/toolchain/riscv64-linux-musleabi_for_x86_64-pc-linux-gnu/bin/../lib/gcc/riscv64-unknown-linux-musl/10.1.0/../../../../riscv64-unknown-linux-musl/lib/libc.a(__unmapself.o)
                              /home/zbtrs/ospp/rt-thread/bsp/toolchain/riscv64-linux-musleabi_for_x86_64-pc-linux-gnu/bin/../lib/gcc/riscv64-unknown-linux-musl/10.1.0/../../../../riscv64-unknown-linux-musl/lib/libc.a(pthread_create.o) (__unmapself)
/home/zbtrs/ospp/rt-thread/bsp/toolchain/riscv64-linux-musleabi_for_x86_64-pc-linux-gnu/bin/../lib/gcc/riscv64-unknown-linux-musl/10.1.0/../../../../riscv64-unknown-linux-musl/lib/libc.a(clone.o)
                              /home/zbtrs/ospp/rt-thread/bsp/toolchain/riscv64-linux-musleabi_for_x86_64-pc-linux-gnu/bin/../lib/gcc/riscv64-unknown-linux-musl/10.1.0/../../../../riscv64-unknown-linux-musl/lib/libc.a(pthread_create.o) (__clone)
/home/zbtrs/ospp/rt-thread/bsp/toolchain/riscv64-linux-musleabi_for_x86_64-pc-linux-gnu/bin/../lib/gcc/riscv64-unknown-linux-musl/10.1.0/../../../../riscv64-unknown-linux-musl/lib/libc.a(vmlock.o)
                              /home/zbtrs/ospp/rt-thread/bsp/toolchain/riscv64-linux-musleabi_for_x86_64-pc-linux-gnu/bin/../lib/gcc/riscv64-unknown-linux-musl/10.1.0/../../../../riscv64-unknown-linux-musl/lib/libc.a(pthread_create.o) (__vm_lock)
/home/zbtrs/ospp/rt-thread/bsp/toolchain/riscv64-linux-musleabi_for_x86_64-pc-linux-gnu/bin/../lib/gcc/riscv64-unknown-linux-musl/10.1.0/../../../../riscv64-unknown-linux-musl/lib/libc.a(time.o)
                              /home/zbtrs/ospp/userapps/sdk/rt-thread/lib/risc-v/rv64gc//librtthread.a(rt_net.o) (time)
/home/zbtrs/ospp/rt-thread/bsp/toolchain/riscv64-linux-musleabi_for_x86_64-pc-linux-gnu/bin/../lib/gcc/riscv64-unknown-linux-musl/10.1.0/../../../../riscv64-unknown-linux-musl/lib/libc.a(close.o)
                              /home/zbtrs/ospp/userapps/sdk/rt-thread/lib/risc-v/rv64gc//librtthread.a(rt_net.o) (close)
/home/zbtrs/ospp/rt-thread/bsp/toolchain/riscv64-linux-musleabi_for_x86_64-pc-linux-gnu/bin/../lib/gcc/riscv64-unknown-linux-musl/10.1.0/../../../../riscv64-unknown-linux-musl/lib/libc.a(tolower.o)
                              /home/zbtrs/ospp/rt-thread/bsp/toolchain/riscv64-linux-musleabi_for_x86_64-pc-linux-gnu/bin/../lib/gcc/riscv64-unknown-linux-musl/10.1.0/../../../../riscv64-unknown-linux-musl/lib/libc.a(strcasecmp.o) (tolower)
/home/zbtrs/ospp/rt-thread/bsp/toolchain/riscv64-linux-musleabi_for_x86_64-pc-linux-gnu/bin/../lib/gcc/riscv64-unknown-linux-musl/10.1.0/../../../../riscv64-unknown-linux-musl/lib/libc.a(__environ.o)
                              /home/zbtrs/ospp/rt-thread/bsp/toolchain/riscv64-linux-musleabi_for_x86_64-pc-linux-gnu/bin/../lib/gcc/riscv64-unknown-linux-musl/10.1.0/../../../../riscv64-unknown-linux-musl/lib/libc.a(__libc_start_main.o) (__environ)
/home/zbtrs/ospp/rt-thread/bsp/toolchain/riscv64-linux-musleabi_for_x86_64-pc-linux-gnu/bin/../lib/gcc/riscv64-unknown-linux-musl/10.1.0/../../../../riscv64-unknown-linux-musl/lib/libc.a(__init_tls.o)
                              /home/zbtrs/ospp/rt-thread/bsp/toolchain/riscv64-linux-musleabi_for_x86_64-pc-linux-gnu/bin/../lib/gcc/riscv64-unknown-linux-musl/10.1.0/../../../../riscv64-unknown-linux-musl/lib/libc.a(pthread_create.o) (__copy_tls)
/home/zbtrs/ospp/rt-thread/bsp/toolchain/riscv64-linux-musleabi_for_x86_64-pc-linux-gnu/bin/../lib/gcc/riscv64-unknown-linux-musl/10.1.0/../../../../riscv64-unknown-linux-musl/lib/libc.a(__stack_chk_fail.o)
                              /home/zbtrs/ospp/rt-thread/bsp/toolchain/riscv64-linux-musleabi_for_x86_64-pc-linux-gnu/bin/../lib/gcc/riscv64-unknown-linux-musl/10.1.0/../../../../riscv64-unknown-linux-musl/lib/libc.a(pthread_create.o) (__stack_chk_guard)
/home/zbtrs/ospp/rt-thread/bsp/toolchain/riscv64-linux-musleabi_for_x86_64-pc-linux-gnu/bin/../lib/gcc/riscv64-unknown-linux-musl/10.1.0/../../../../riscv64-unknown-linux-musl/lib/libc.a(_Exit.o)
                              /home/zbtrs/ospp/rt-thread/bsp/toolchain/riscv64-linux-musleabi_for_x86_64-pc-linux-gnu/bin/../lib/gcc/riscv64-unknown-linux-musl/10.1.0/../../../../riscv64-unknown-linux-musl/lib/libc.a(exit.o) (_Exit)
/home/zbtrs/ospp/rt-thread/bsp/toolchain/riscv64-linux-musleabi_for_x86_64-pc-linux-gnu/bin/../lib/gcc/riscv64-unknown-linux-musl/10.1.0/../../../../riscv64-unknown-linux-musl/lib/libc.a(expand_heap.o)
                              /home/zbtrs/ospp/rt-thread/bsp/toolchain/riscv64-linux-musleabi_for_x86_64-pc-linux-gnu/bin/../lib/gcc/riscv64-unknown-linux-musl/10.1.0/../../../../riscv64-unknown-linux-musl/lib/libc.a(lite_malloc.o) (__expand_heap)
/home/zbtrs/ospp/rt-thread/bsp/toolchain/riscv64-linux-musleabi_for_x86_64-pc-linux-gnu/bin/../lib/gcc/riscv64-unknown-linux-musl/10.1.0/../../../../riscv64-unknown-linux-musl/lib/libc.a(__fpclassifyl.o)
                              /home/zbtrs/ospp/rt-thread/bsp/toolchain/riscv64-linux-musleabi_for_x86_64-pc-linux-gnu/bin/../lib/gcc/riscv64-unknown-linux-musl/10.1.0/../../../../riscv64-unknown-linux-musl/lib/libc.a(vfprintf.o) (__fpclassifyl)
/home/zbtrs/ospp/rt-thread/bsp/toolchain/riscv64-linux-musleabi_for_x86_64-pc-linux-gnu/bin/../lib/gcc/riscv64-unknown-linux-musl/10.1.0/../../../../riscv64-unknown-linux-musl/lib/libc.a(__signbitl.o)
                              /home/zbtrs/ospp/rt-thread/bsp/toolchain/riscv64-linux-musleabi_for_x86_64-pc-linux-gnu/bin/../lib/gcc/riscv64-unknown-linux-musl/10.1.0/../../../../riscv64-unknown-linux-musl/lib/libc.a(vfprintf.o) (__signbitl)
/home/zbtrs/ospp/rt-thread/bsp/toolchain/riscv64-linux-musleabi_for_x86_64-pc-linux-gnu/bin/../lib/gcc/riscv64-unknown-linux-musl/10.1.0/../../../../riscv64-unknown-linux-musl/lib/libc.a(frexpl.o)
                              /home/zbtrs/ospp/rt-thread/bsp/toolchain/riscv64-linux-musleabi_for_x86_64-pc-linux-gnu/bin/../lib/gcc/riscv64-unknown-linux-musl/10.1.0/../../../../riscv64-unknown-linux-musl/lib/libc.a(vfprintf.o) (frexpl)
/home/zbtrs/ospp/rt-thread/bsp/toolchain/riscv64-linux-musleabi_for_x86_64-pc-linux-gnu/bin/../lib/gcc/riscv64-unknown-linux-musl/10.1.0/../../../../riscv64-unknown-linux-musl/lib/libc.a(getopt.o)
                              /home/zbtrs/ospp/rt-thread/bsp/toolchain/riscv64-linux-musleabi_for_x86_64-pc-linux-gnu/bin/../lib/gcc/riscv64-unknown-linux-musl/10.1.0/../../../../riscv64-unknown-linux-musl/lib/libc.a(getopt_long.o) (__getopt_msg)
/home/zbtrs/ospp/rt-thread/bsp/toolchain/riscv64-linux-musleabi_for_x86_64-pc-linux-gnu/bin/../lib/gcc/riscv64-unknown-linux-musl/10.1.0/../../../../riscv64-unknown-linux-musl/lib/libc.a(mprotect.o)
                              /home/zbtrs/ospp/rt-thread/bsp/toolchain/riscv64-linux-musleabi_for_x86_64-pc-linux-gnu/bin/../lib/gcc/riscv64-unknown-linux-musl/10.1.0/../../../../riscv64-unknown-linux-musl/lib/libc.a(pthread_create.o) (__mprotect)
/home/zbtrs/ospp/rt-thread/bsp/toolchain/riscv64-linux-musleabi_for_x86_64-pc-linux-gnu/bin/../lib/gcc/riscv64-unknown-linux-musl/10.1.0/../../../../riscv64-unknown-linux-musl/lib/libc.a(internal.o)
                              /home/zbtrs/ospp/rt-thread/bsp/toolchain/riscv64-linux-musleabi_for_x86_64-pc-linux-gnu/bin/../lib/gcc/riscv64-unknown-linux-musl/10.1.0/../../../../riscv64-unknown-linux-musl/lib/libc.a(mbtowc.o) (__fsmu8)
/home/zbtrs/ospp/rt-thread/bsp/toolchain/riscv64-linux-musleabi_for_x86_64-pc-linux-gnu/bin/../lib/gcc/riscv64-unknown-linux-musl/10.1.0/../../../../riscv64-unknown-linux-musl/lib/libc.a(wctomb.o)
                              /home/zbtrs/ospp/rt-thread/bsp/toolchain/riscv64-linux-musleabi_for_x86_64-pc-linux-gnu/bin/../lib/gcc/riscv64-unknown-linux-musl/10.1.0/../../../../riscv64-unknown-linux-musl/lib/libc.a(vfprintf.o) (wctomb)
/home/zbtrs/ospp/rt-thread/bsp/toolchain/riscv64-linux-musleabi_for_x86_64-pc-linux-gnu/bin/../lib/gcc/riscv64-unknown-linux-musl/10.1.0/../../../../riscv64-unknown-linux-musl/lib/libc.a(block.o)
                              /home/zbtrs/ospp/rt-thread/bsp/toolchain/riscv64-linux-musleabi_for_x86_64-pc-linux-gnu/bin/../lib/gcc/riscv64-unknown-linux-musl/10.1.0/../../../../riscv64-unknown-linux-musl/lib/libc.a(pthread_create.o) (__block_all_sigs)
/home/zbtrs/ospp/rt-thread/bsp/toolchain/riscv64-linux-musleabi_for_x86_64-pc-linux-gnu/bin/../lib/gcc/riscv64-unknown-linux-musl/10.1.0/../../../../riscv64-unknown-linux-musl/lib/libc.a(__lockfile.o)
                              /home/zbtrs/ospp/rt-thread/bsp/toolchain/riscv64-linux-musleabi_for_x86_64-pc-linux-gnu/bin/../lib/gcc/riscv64-unknown-linux-musl/10.1.0/../../../../riscv64-unknown-linux-musl/lib/libc.a(perror.o) (__lockfile)
/home/zbtrs/ospp/rt-thread/bsp/toolchain/riscv64-linux-musleabi_for_x86_64-pc-linux-gnu/bin/../lib/gcc/riscv64-unknown-linux-musl/10.1.0/../../../../riscv64-unknown-linux-musl/lib/libc.a(__overflow.o)
                              /home/zbtrs/ospp/rt-thread/bsp/toolchain/riscv64-linux-musleabi_for_x86_64-pc-linux-gnu/bin/../lib/gcc/riscv64-unknown-linux-musl/10.1.0/../../../../riscv64-unknown-linux-musl/lib/libc.a(puts.o) (__overflow)
/home/zbtrs/ospp/rt-thread/bsp/toolchain/riscv64-linux-musleabi_for_x86_64-pc-linux-gnu/bin/../lib/gcc/riscv64-unknown-linux-musl/10.1.0/../../../../riscv64-unknown-linux-musl/lib/libc.a(__stdio_close.o)
                              /home/zbtrs/ospp/rt-thread/bsp/toolchain/riscv64-linux-musleabi_for_x86_64-pc-linux-gnu/bin/../lib/gcc/riscv64-unknown-linux-musl/10.1.0/../../../../riscv64-unknown-linux-musl/lib/libc.a(stderr.o) (__stdio_close)
/home/zbtrs/ospp/rt-thread/bsp/toolchain/riscv64-linux-musleabi_for_x86_64-pc-linux-gnu/bin/../lib/gcc/riscv64-unknown-linux-musl/10.1.0/../../../../riscv64-unknown-linux-musl/lib/libc.a(__stdio_seek.o)
                              /home/zbtrs/ospp/rt-thread/bsp/toolchain/riscv64-linux-musleabi_for_x86_64-pc-linux-gnu/bin/../lib/gcc/riscv64-unknown-linux-musl/10.1.0/../../../../riscv64-unknown-linux-musl/lib/libc.a(stderr.o) (__stdio_seek)
/home/zbtrs/ospp/rt-thread/bsp/toolchain/riscv64-linux-musleabi_for_x86_64-pc-linux-gnu/bin/../lib/gcc/riscv64-unknown-linux-musl/10.1.0/../../../../riscv64-unknown-linux-musl/lib/libc.a(__stdio_write.o)
                              /home/zbtrs/ospp/rt-thread/bsp/toolchain/riscv64-linux-musleabi_for_x86_64-pc-linux-gnu/bin/../lib/gcc/riscv64-unknown-linux-musl/10.1.0/../../../../riscv64-unknown-linux-musl/lib/libc.a(stderr.o) (__stdio_write)
/home/zbtrs/ospp/rt-thread/bsp/toolchain/riscv64-linux-musleabi_for_x86_64-pc-linux-gnu/bin/../lib/gcc/riscv64-unknown-linux-musl/10.1.0/../../../../riscv64-unknown-linux-musl/lib/libc.a(__stdout_write.o)
                              /home/zbtrs/ospp/rt-thread/bsp/toolchain/riscv64-linux-musleabi_for_x86_64-pc-linux-gnu/bin/../lib/gcc/riscv64-unknown-linux-musl/10.1.0/../../../../riscv64-unknown-linux-musl/lib/libc.a(stdout.o) (__stdout_write)
/home/zbtrs/ospp/rt-thread/bsp/toolchain/riscv64-linux-musleabi_for_x86_64-pc-linux-gnu/bin/../lib/gcc/riscv64-unknown-linux-musl/10.1.0/../../../../riscv64-unknown-linux-musl/lib/libc.a(__towrite.o)
                              /home/zbtrs/ospp/rt-thread/bsp/toolchain/riscv64-linux-musleabi_for_x86_64-pc-linux-gnu/bin/../lib/gcc/riscv64-unknown-linux-musl/10.1.0/../../../../riscv64-unknown-linux-musl/lib/libc.a(vfprintf.o) (__towrite)
/home/zbtrs/ospp/rt-thread/bsp/toolchain/riscv64-linux-musleabi_for_x86_64-pc-linux-gnu/bin/../lib/gcc/riscv64-unknown-linux-musl/10.1.0/../../../../riscv64-unknown-linux-musl/lib/libc.a(fputc.o)
                              /home/zbtrs/ospp/rt-thread/bsp/toolchain/riscv64-linux-musleabi_for_x86_64-pc-linux-gnu/bin/../lib/gcc/riscv64-unknown-linux-musl/10.1.0/../../../../riscv64-unknown-linux-musl/lib/libc.a(perror.o) (fputc)
/home/zbtrs/ospp/rt-thread/bsp/toolchain/riscv64-linux-musleabi_for_x86_64-pc-linux-gnu/bin/../lib/gcc/riscv64-unknown-linux-musl/10.1.0/../../../../riscv64-unknown-linux-musl/lib/libc.a(fputs.o)
                              /home/zbtrs/ospp/rt-thread/bsp/toolchain/riscv64-linux-musleabi_for_x86_64-pc-linux-gnu/bin/../lib/gcc/riscv64-unknown-linux-musl/10.1.0/../../../../riscv64-unknown-linux-musl/lib/libc.a(puts.o) (fputs)
/home/zbtrs/ospp/rt-thread/bsp/toolchain/riscv64-linux-musleabi_for_x86_64-pc-linux-gnu/bin/../lib/gcc/riscv64-unknown-linux-musl/10.1.0/../../../../riscv64-unknown-linux-musl/lib/libc.a(fwrite.o)
                              /home/zbtrs/ospp/rt-thread/bsp/toolchain/riscv64-linux-musleabi_for_x86_64-pc-linux-gnu/bin/../lib/gcc/riscv64-unknown-linux-musl/10.1.0/../../../../riscv64-unknown-linux-musl/lib/libc.a(vfprintf.o) (__fwritex)
/home/zbtrs/ospp/rt-thread/bsp/toolchain/riscv64-linux-musleabi_for_x86_64-pc-linux-gnu/bin/../lib/gcc/riscv64-unknown-linux-musl/10.1.0/../../../../riscv64-unknown-linux-musl/lib/libc.a(ofl.o)
                              /home/zbtrs/ospp/rt-thread/bsp/toolchain/riscv64-linux-musleabi_for_x86_64-pc-linux-gnu/bin/../lib/gcc/riscv64-unknown-linux-musl/10.1.0/../../../../riscv64-unknown-linux-musl/lib/libc.a(pthread_create.o) (__ofl_lock)
/home/zbtrs/ospp/rt-thread/bsp/toolchain/riscv64-linux-musleabi_for_x86_64-pc-linux-gnu/bin/../lib/gcc/riscv64-unknown-linux-musl/10.1.0/../../../../riscv64-unknown-linux-musl/lib/libc.a(putc.o)
                              /home/zbtrs/ospp/rt-thread/bsp/toolchain/riscv64-linux-musleabi_for_x86_64-pc-linux-gnu/bin/../lib/gcc/riscv64-unknown-linux-musl/10.1.0/../../../../riscv64-unknown-linux-musl/lib/libc.a(getopt.o) (putc)
/home/zbtrs/ospp/rt-thread/bsp/toolchain/riscv64-linux-musleabi_for_x86_64-pc-linux-gnu/bin/../lib/gcc/riscv64-unknown-linux-musl/10.1.0/../../../../riscv64-unknown-linux-musl/lib/libc.a(memchr.o)
                              /home/zbtrs/ospp/rt-thread/bsp/toolchain/riscv64-linux-musleabi_for_x86_64-pc-linux-gnu/bin/../lib/gcc/riscv64-unknown-linux-musl/10.1.0/../../../../riscv64-unknown-linux-musl/lib/libc.a(strnlen.o) (memchr)
/home/zbtrs/ospp/rt-thread/bsp/toolchain/riscv64-linux-musleabi_for_x86_64-pc-linux-gnu/bin/../lib/gcc/riscv64-unknown-linux-musl/10.1.0/../../../../riscv64-unknown-linux-musl/lib/libc.a(stpncpy.o)
                              /home/zbtrs/ospp/rt-thread/bsp/toolchain/riscv64-linux-musleabi_for_x86_64-pc-linux-gnu/bin/../lib/gcc/riscv64-unknown-linux-musl/10.1.0/../../../../riscv64-unknown-linux-musl/lib/libc.a(strncpy.o) (__stpncpy)
/home/zbtrs/ospp/rt-thread/bsp/toolchain/riscv64-linux-musleabi_for_x86_64-pc-linux-gnu/bin/../lib/gcc/riscv64-unknown-linux-musl/10.1.0/../../../../riscv64-unknown-linux-musl/lib/libc.a(strchr.o)
                              /home/zbtrs/ospp/rt-thread/bsp/toolchain/riscv64-linux-musleabi_for_x86_64-pc-linux-gnu/bin/../lib/gcc/riscv64-unknown-linux-musl/10.1.0/../../../../riscv64-unknown-linux-musl/lib/libc.a(strstr.o) (strchr)
/home/zbtrs/ospp/rt-thread/bsp/toolchain/riscv64-linux-musleabi_for_x86_64-pc-linux-gnu/bin/../lib/gcc/riscv64-unknown-linux-musl/10.1.0/../../../../riscv64-unknown-linux-musl/lib/libc.a(strchrnul.o)
                              /home/zbtrs/ospp/rt-thread/bsp/toolchain/riscv64-linux-musleabi_for_x86_64-pc-linux-gnu/bin/../lib/gcc/riscv64-unknown-linux-musl/10.1.0/../../../../riscv64-unknown-linux-musl/lib/libc.a(strchr.o) (__strchrnul)
/home/zbtrs/ospp/rt-thread/bsp/toolchain/riscv64-linux-musleabi_for_x86_64-pc-linux-gnu/bin/../lib/gcc/riscv64-unknown-linux-musl/10.1.0/../../../../riscv64-unknown-linux-musl/lib/libc.a(default_attr.o)
                              /home/zbtrs/ospp/rt-thread/bsp/toolchain/riscv64-linux-musleabi_for_x86_64-pc-linux-gnu/bin/../lib/gcc/riscv64-unknown-linux-musl/10.1.0/../../../../riscv64-unknown-linux-musl/lib/libc.a(pthread_create.o) (__default_guardsize)
/home/zbtrs/ospp/rt-thread/bsp/toolchain/riscv64-linux-musleabi_for_x86_64-pc-linux-gnu/bin/../lib/gcc/riscv64-unknown-linux-musl/10.1.0/../../../../riscv64-unknown-linux-musl/lib/libc.a(clock_gettime.o)
                              /home/zbtrs/ospp/rt-thread/bsp/toolchain/riscv64-linux-musleabi_for_x86_64-pc-linux-gnu/bin/../lib/gcc/riscv64-unknown-linux-musl/10.1.0/../../../../riscv64-unknown-linux-musl/lib/libc.a(time.o) (__clock_gettime)
/home/zbtrs/ospp/rt-thread/bsp/toolchain/riscv64-linux-musleabi_for_x86_64-pc-linux-gnu/bin/../lib/gcc/riscv64-unknown-linux-musl/10.1.0/../../../../riscv64-unknown-linux-musl/lib/libc.a(wcrtomb.o)
                              /home/zbtrs/ospp/rt-thread/bsp/toolchain/riscv64-linux-musleabi_for_x86_64-pc-linux-gnu/bin/../lib/gcc/riscv64-unknown-linux-musl/10.1.0/../../../../riscv64-unknown-linux-musl/lib/libc.a(wctomb.o) (wcrtomb)
/home/zbtrs/ospp/rt-thread/bsp/toolchain/riscv64-linux-musleabi_for_x86_64-pc-linux-gnu/bin/../lib/gcc/riscv64-unknown-linux-musl/10.1.0/../../../../riscv64-unknown-linux-musl/lib/libc.a(__stdio_exit.o)
                              /home/zbtrs/ospp/rt-thread/bsp/toolchain/riscv64-linux-musleabi_for_x86_64-pc-linux-gnu/bin/../lib/gcc/riscv64-unknown-linux-musl/10.1.0/../../../../riscv64-unknown-linux-musl/lib/libc.a(__towrite.o) (__stdio_exit_needed)
/home/zbtrs/ospp/rt-thread/bsp/toolchain/riscv64-linux-musleabi_for_x86_64-pc-linux-gnu/bin/../lib/gcc/riscv64-unknown-linux-musl/10.1.0/libgcc.a(addtf3.o)
                              /home/zbtrs/ospp/rt-thread/bsp/toolchain/riscv64-linux-musleabi_for_x86_64-pc-linux-gnu/bin/../lib/gcc/riscv64-unknown-linux-musl/10.1.0/../../../../riscv64-unknown-linux-musl/lib/libc.a(vfprintf.o) (__addtf3)
/home/zbtrs/ospp/rt-thread/bsp/toolchain/riscv64-linux-musleabi_for_x86_64-pc-linux-gnu/bin/../lib/gcc/riscv64-unknown-linux-musl/10.1.0/libgcc.a(eqtf2.o)
                              /home/zbtrs/ospp/rt-thread/bsp/toolchain/riscv64-linux-musleabi_for_x86_64-pc-linux-gnu/bin/../lib/gcc/riscv64-unknown-linux-musl/10.1.0/../../../../riscv64-unknown-linux-musl/lib/libc.a(vfprintf.o) (__netf2)
/home/zbtrs/ospp/rt-thread/bsp/toolchain/riscv64-linux-musleabi_for_x86_64-pc-linux-gnu/bin/../lib/gcc/riscv64-unknown-linux-musl/10.1.0/libgcc.a(multf3.o)
                              /home/zbtrs/ospp/rt-thread/bsp/toolchain/riscv64-linux-musleabi_for_x86_64-pc-linux-gnu/bin/../lib/gcc/riscv64-unknown-linux-musl/10.1.0/../../../../riscv64-unknown-linux-musl/lib/libc.a(vfprintf.o) (__multf3)
/home/zbtrs/ospp/rt-thread/bsp/toolchain/riscv64-linux-musleabi_for_x86_64-pc-linux-gnu/bin/../lib/gcc/riscv64-unknown-linux-musl/10.1.0/libgcc.a(subtf3.o)
                              /home/zbtrs/ospp/rt-thread/bsp/toolchain/riscv64-linux-musleabi_for_x86_64-pc-linux-gnu/bin/../lib/gcc/riscv64-unknown-linux-musl/10.1.0/../../../../riscv64-unknown-linux-musl/lib/libc.a(vfprintf.o) (__subtf3)
/home/zbtrs/ospp/rt-thread/bsp/toolchain/riscv64-linux-musleabi_for_x86_64-pc-linux-gnu/bin/../lib/gcc/riscv64-unknown-linux-musl/10.1.0/libgcc.a(fixtfsi.o)
                              /home/zbtrs/ospp/rt-thread/bsp/toolchain/riscv64-linux-musleabi_for_x86_64-pc-linux-gnu/bin/../lib/gcc/riscv64-unknown-linux-musl/10.1.0/../../../../riscv64-unknown-linux-musl/lib/libc.a(vfprintf.o) (__fixtfsi)
/home/zbtrs/ospp/rt-thread/bsp/toolchain/riscv64-linux-musleabi_for_x86_64-pc-linux-gnu/bin/../lib/gcc/riscv64-unknown-linux-musl/10.1.0/libgcc.a(fixunstfsi.o)
                              /home/zbtrs/ospp/rt-thread/bsp/toolchain/riscv64-linux-musleabi_for_x86_64-pc-linux-gnu/bin/../lib/gcc/riscv64-unknown-linux-musl/10.1.0/../../../../riscv64-unknown-linux-musl/lib/libc.a(vfprintf.o) (__fixunstfsi)
/home/zbtrs/ospp/rt-thread/bsp/toolchain/riscv64-linux-musleabi_for_x86_64-pc-linux-gnu/bin/../lib/gcc/riscv64-unknown-linux-musl/10.1.0/libgcc.a(floatsitf.o)
                              /home/zbtrs/ospp/rt-thread/bsp/toolchain/riscv64-linux-musleabi_for_x86_64-pc-linux-gnu/bin/../lib/gcc/riscv64-unknown-linux-musl/10.1.0/../../../../riscv64-unknown-linux-musl/lib/libc.a(vfprintf.o) (__floatsitf)
/home/zbtrs/ospp/rt-thread/bsp/toolchain/riscv64-linux-musleabi_for_x86_64-pc-linux-gnu/bin/../lib/gcc/riscv64-unknown-linux-musl/10.1.0/libgcc.a(floatunsitf.o)
                              /home/zbtrs/ospp/rt-thread/bsp/toolchain/riscv64-linux-musleabi_for_x86_64-pc-linux-gnu/bin/../lib/gcc/riscv64-unknown-linux-musl/10.1.0/../../../../riscv64-unknown-linux-musl/lib/libc.a(vfprintf.o) (__floatunsitf)
/home/zbtrs/ospp/rt-thread/bsp/toolchain/riscv64-linux-musleabi_for_x86_64-pc-linux-gnu/bin/../lib/gcc/riscv64-unknown-linux-musl/10.1.0/libgcc.a(extenddftf2.o)
                              /home/zbtrs/ospp/rt-thread/bsp/toolchain/riscv64-linux-musleabi_for_x86_64-pc-linux-gnu/bin/../lib/gcc/riscv64-unknown-linux-musl/10.1.0/../../../../riscv64-unknown-linux-musl/lib/libc.a(vfprintf.o) (__extenddftf2)
/home/zbtrs/ospp/rt-thread/bsp/toolchain/riscv64-linux-musleabi_for_x86_64-pc-linux-gnu/bin/../lib/gcc/riscv64-unknown-linux-musl/10.1.0/libgcc.a(_clzsi2.o)
                              /home/zbtrs/ospp/rt-thread/bsp/toolchain/riscv64-linux-musleabi_for_x86_64-pc-linux-gnu/bin/../lib/gcc/riscv64-unknown-linux-musl/10.1.0/libgcc.a(addtf3.o) (__clzdi2)
/home/zbtrs/ospp/rt-thread/bsp/toolchain/riscv64-linux-musleabi_for_x86_64-pc-linux-gnu/bin/../lib/gcc/riscv64-unknown-linux-musl/10.1.0/libgcc.a(_clz.o)
                              /home/zbtrs/ospp/rt-thread/bsp/toolchain/riscv64-linux-musleabi_for_x86_64-pc-linux-gnu/bin/../lib/gcc/riscv64-unknown-linux-musl/10.1.0/libgcc.a(_clzsi2.o) (__clz_tab)

Memory Configuration

Name             Origin             Length             Attributes
*default*        0x0000000000000000 0xffffffffffffffff

Linker script and memory map

LOAD /home/zbtrs/ospp/rt-thread/bsp/toolchain/riscv64-linux-musleabi_for_x86_64-pc-linux-gnu/bin/../lib/gcc/riscv64-unknown-linux-musl/10.1.0/../../../../riscv64-unknown-linux-musl/lib/crt1.o
LOAD /home/zbtrs/ospp/rt-thread/bsp/toolchain/riscv64-linux-musleabi_for_x86_64-pc-linux-gnu/bin/../lib/gcc/riscv64-unknown-linux-musl/10.1.0/crti.o
LOAD /home/zbtrs/ospp/rt-thread/bsp/toolchain/riscv64-linux-musleabi_for_x86_64-pc-linux-gnu/bin/../lib/gcc/riscv64-unknown-linux-musl/10.1.0/crtbeginT.o
START GROUP
LOAD /home/zbtrs/ospp/userapps/sdk/rt-thread/lib/risc-v/rv64gc//librtthread.a
END GROUP
LOAD /tmp/cc2olldp.o
START GROUP
LOAD /home/zbtrs/ospp/rt-thread/bsp/toolchain/riscv64-linux-musleabi_for_x86_64-pc-linux-gnu/bin/../lib/gcc/riscv64-unknown-linux-musl/10.1.0/libgcc.a
LOAD /home/zbtrs/ospp/rt-thread/bsp/toolchain/riscv64-linux-musleabi_for_x86_64-pc-linux-gnu/bin/../lib/gcc/riscv64-unknown-linux-musl/10.1.0/libgcc_eh.a
LOAD /home/zbtrs/ospp/rt-thread/bsp/toolchain/riscv64-linux-musleabi_for_x86_64-pc-linux-gnu/bin/../lib/gcc/riscv64-unknown-linux-musl/10.1.0/../../../../riscv64-unknown-linux-musl/lib/libc.a
END GROUP
LOAD /home/zbtrs/ospp/rt-thread/bsp/toolchain/riscv64-linux-musleabi_for_x86_64-pc-linux-gnu/bin/../lib/gcc/riscv64-unknown-linux-musl/10.1.0/crtend.o
LOAD /home/zbtrs/ospp/rt-thread/bsp/toolchain/riscv64-linux-musleabi_for_x86_64-pc-linux-gnu/bin/../lib/gcc/riscv64-unknown-linux-musl/10.1.0/crtn.o
                0x0000000200000000                . = 0x200000000

.text           0x0000000200000000    0x11948
                0x0000000200000000                __text_start__ = .
 *(.start)
 .start         0x0000000200000000       0x14 /home/zbtrs/ospp/rt-thread/bsp/toolchain/riscv64-linux-musleabi_for_x86_64-pc-linux-gnu/bin/../lib/gcc/riscv64-unknown-linux-musl/10.1.0/../../../../riscv64-unknown-linux-musl/lib/crt1.o
                0x0000000200000000                _start
 *(.text*)
 .text          0x0000000200000014        0x0 /home/zbtrs/ospp/rt-thread/bsp/toolchain/riscv64-linux-musleabi_for_x86_64-pc-linux-gnu/bin/../lib/gcc/riscv64-unknown-linux-musl/10.1.0/../../../../riscv64-unknown-linux-musl/lib/crt1.o
 .text._start_c
                0x0000000200000014       0x28 /home/zbtrs/ospp/rt-thread/bsp/toolchain/riscv64-linux-musleabi_for_x86_64-pc-linux-gnu/bin/../lib/gcc/riscv64-unknown-linux-musl/10.1.0/../../../../riscv64-unknown-linux-musl/lib/crt1.o
                0x0000000200000014                _start_c
 .text          0x000000020000003c        0x0 /home/zbtrs/ospp/rt-thread/bsp/toolchain/riscv64-linux-musleabi_for_x86_64-pc-linux-gnu/bin/../lib/gcc/riscv64-unknown-linux-musl/10.1.0/crti.o
 .text          0x000000020000003c       0xac /home/zbtrs/ospp/rt-thread/bsp/toolchain/riscv64-linux-musleabi_for_x86_64-pc-linux-gnu/bin/../lib/gcc/riscv64-unknown-linux-musl/10.1.0/crtbeginT.o
 .text          0x00000002000000e8      0x1da /home/zbtrs/ospp/userapps/sdk/rt-thread/lib/risc-v/rv64gc//librtthread.a(rt_channel.o)
                0x00000002000000e8                rt_channel_open
                0x000000020000011a                rt_channel_close
                0x0000000200000142                rt_channel_send_recv
                0x000000020000017c                rt_channel_send_recv_timeout
                0x00000002000001c0                rt_channel_send
                0x00000002000001f0                rt_channel_reply
                0x0000000200000220                rt_channel_recv
                0x0000000200000252                rt_channel_recv_timeout
                0x0000000200000290                rt_channel_peek
 .text          0x00000002000002c2       0xaa /home/zbtrs/ospp/userapps/sdk/rt-thread/lib/risc-v/rv64gc//librtthread.a(rt_completion.o)
                0x00000002000002c2                rt_completion_init
                0x0000000200000308                rt_completion_wait
                0x0000000200000348                rt_completion_done
 .text          0x000000020000036c      0x188 /home/zbtrs/ospp/userapps/sdk/rt-thread/lib/risc-v/rv64gc//librtthread.a(rt_device.o)
                0x000000020000036c                rt_device_init
                0x0000000200000390                rt_device_register
                0x00000002000003ca                rt_device_control
                0x0000000200000402                rt_device_find
                0x0000000200000426                rt_device_open
                0x0000000200000458                rt_device_close
                0x000000020000047c                rt_device_read
                0x00000002000004b8                rt_device_write
 .text          0x00000002000004f4        0x0 /home/zbtrs/ospp/userapps/sdk/rt-thread/lib/risc-v/rv64gc//librtthread.a(rt_ipc.o)
 .text          0x00000002000004f4      0x5e0 /home/zbtrs/ospp/userapps/sdk/rt-thread/lib/risc-v/rv64gc//librtthread.a(rt_net.o)
                0x00000002000004f4                closesocket
                0x000000020000051e                getaddrinfo
                0x0000000200000598                freeaddrinfo
                0x00000002000005b6                gethostbyname2_r
                0x000000020000067a                socketpair
 .text          0x0000000200000ad4      0xea2 /home/zbtrs/ospp/userapps/sdk/rt-thread/lib/risc-v/rv64gc//librtthread.a(rt_syscall.o)
                0x0000000200000ad4                rt_mutex_create
                0x0000000200000b44                rt_mutex_init
                0x0000000200000ba0                rt_mutex_delete
                0x0000000200000c02                rt_mutex_detach
                0x0000000200000c6c                rt_mutex_take
                0x0000000200000cc2                rt_mutex_release
                0x0000000200000d0c                rt_sem_create
                0x0000000200000d8c                rt_sem_init
                0x0000000200000df8                rt_sem_delete
                0x0000000200000e5a                rt_sem_detach
                0x0000000200000ec4                rt_sem_release
                0x0000000200000f0e                rt_sem_take
                0x0000000200000f64                rt_mb_create
                0x0000000200000fdc                rt_mb_init
                0x0000000200001044                rt_mb_delete
                0x00000002000010a6                rt_mb_detach
                0x0000000200001110                rt_mb_send_wait
                0x0000000200001170                rt_mb_send
                0x00000002000011c4                rt_mb_recv
                0x0000000200001224                rt_mq_create
                0x00000002000012a6                rt_mq_init
                0x000000020000131e                rt_mq_delete
                0x0000000200001382                rt_mq_detach
                0x00000002000013ee                rt_mq_send
                0x000000020000144a                rt_mq_urgent
                0x00000002000014a6                rt_mq_recv
                0x000000020000150c                rt_event_create
                0x000000020000157c                rt_event_init
                0x00000002000015d8                rt_event_delete
                0x000000020000163a                rt_event_detach
                0x00000002000016a4                rt_event_send
                0x00000002000016fa                rt_event_recv
                0x000000020000176c                rt_tick_get
                0x000000020000178a                rt_thread_mdelay
                0x00000002000017b2                lwp_shmget
                0x00000002000017ec                lwp_shmrm
                0x0000000200001816                lwp_shmat
                0x0000000200001846                lwp_shmdt
                0x000000020000186c                exec
                0x00000002000018ac                lwp_kill
                0x00000002000018e2                lwp_tkill
                0x000000020000191a                waitpid
                0x000000020000195a                rt_get_errno
 .text          0x0000000200001976      0x20a /home/zbtrs/ospp/userapps/sdk/rt-thread/lib/risc-v/rv64gc//librtthread.a(rt_thread.o)
                0x0000000200001976                rt_thread_find
                0x00000002000019e0                rt_thread_create
                0x0000000200001aa8                rt_thread_startup
                0x0000000200001acc                rt_thread_self
                0x0000000200001ae8                rt_thread_delete
                0x0000000200001b0c                rt_enter_critical
                0x0000000200001b26                rt_exit_critical
                0x0000000200001b40                cacheflush
 .text          0x0000000200001b80      0xa58 /home/zbtrs/ospp/userapps/sdk/rt-thread/lib/risc-v/rv64gc//librtthread.a(rt_timer.o)
                0x0000000200001d78                rt_timer_init
                0x0000000200001dc4                rt_timer_detach
                0x0000000200001e0c                rt_timer_create
                0x0000000200001e6c                rt_timer_delete
                0x0000000200001ebc                rt_timer_start
                0x000000020000213c                rt_timer_stop
                0x00000002000021ae                rt_timer_control
                0x0000000200002280                rt_soft_timer_check
                0x00000002000024c2                rt_system_timer_init
 .text          0x00000002000025d8      0x57e /home/zbtrs/ospp/userapps/sdk/rt-thread/lib/risc-v/rv64gc//librtthread.a(stub.o)
                0x00000002000025d8                rt_malloc
                0x00000002000025f8                rt_free
                0x0000000200002614                rt_realloc
                0x000000020000263c                rt_calloc
                0x0000000200002664                rt_snprintf
                0x00000002000026c4                rt_sprintf
                0x000000020000271e                rt_vsnprintf
                0x0000000200002756                rt_kprintf
                0x00000002000027cc                rt_strdup
                0x00000002000027ec                rt_strstr
                0x0000000200002814                rt_strcmp
                0x000000020000283c                rt_strlen
                0x000000020000285c                rt_strncmp
                0x000000020000288c                rt_strncpy
                0x00000002000028bc                rt_strcasecmp
                0x00000002000028e6                rt_memset
                0x000000020000291a                rt_memcpy
                0x000000020000294a                rt_memcmp
                0x000000020000297a                rt_memmove
                0x00000002000029aa                rt_tick_from_millisecond
                0x0000000200002a2a                rt_malloc_align
                0x0000000200002af6                rt_free_align
                0x0000000200002b20                rt_assert_handler
 .text          0x0000000200002b56       0x1a /tmp/cc2olldp.o
                0x0000000200002b56                main
 .text          0x0000000200002b70        0x0 /home/zbtrs/ospp/rt-thread/bsp/toolchain/riscv64-linux-musleabi_for_x86_64-pc-linux-gnu/bin/../lib/gcc/riscv64-unknown-linux-musl/10.1.0/../../../../riscv64-unknown-linux-musl/lib/libc.a(__libc_start_main.o)
 .text.dummy    0x0000000200002b70        0x2 /home/zbtrs/ospp/rt-thread/bsp/toolchain/riscv64-linux-musleabi_for_x86_64-pc-linux-gnu/bin/../lib/gcc/riscv64-unknown-linux-musl/10.1.0/../../../../riscv64-unknown-linux-musl/lib/libc.a(__libc_start_main.o)
                0x0000000200002b70                _init
 .text.dummy1   0x0000000200002b72        0x2 /home/zbtrs/ospp/rt-thread/bsp/toolchain/riscv64-linux-musleabi_for_x86_64-pc-linux-gnu/bin/../lib/gcc/riscv64-unknown-linux-musl/10.1.0/../../../../riscv64-unknown-linux-musl/lib/libc.a(__libc_start_main.o)
 .text.__init_libc
                0x0000000200002b74       0xf0 /home/zbtrs/ospp/rt-thread/bsp/toolchain/riscv64-linux-musleabi_for_x86_64-pc-linux-gnu/bin/../lib/gcc/riscv64-unknown-linux-musl/10.1.0/../../../../riscv64-unknown-linux-musl/lib/libc.a(__libc_start_main.o)
                0x0000000200002b74                __init_libc
 .text.libc_start_init
                0x0000000200002c64       0x34 /home/zbtrs/ospp/rt-thread/bsp/toolchain/riscv64-linux-musleabi_for_x86_64-pc-linux-gnu/bin/../lib/gcc/riscv64-unknown-linux-musl/10.1.0/../../../../riscv64-unknown-linux-musl/lib/libc.a(__libc_start_main.o)
                0x0000000200002c64                __libc_start_init
 .text.libc_start_main_stage2
                0x0000000200002c98       0x2a /home/zbtrs/ospp/rt-thread/bsp/toolchain/riscv64-linux-musleabi_for_x86_64-pc-linux-gnu/bin/../lib/gcc/riscv64-unknown-linux-musl/10.1.0/../../../../riscv64-unknown-linux-musl/lib/libc.a(__libc_start_main.o)
 .text.__libc_start_main
                0x0000000200002cc2       0x3a /home/zbtrs/ospp/rt-thread/bsp/toolchain/riscv64-linux-musleabi_for_x86_64-pc-linux-gnu/bin/../lib/gcc/riscv64-unknown-linux-musl/10.1.0/../../../../riscv64-unknown-linux-musl/lib/libc.a(__libc_start_main.o)
                0x0000000200002cc2                __libc_start_main
 .text          0x0000000200002cfc        0x0 /home/zbtrs/ospp/rt-thread/bsp/toolchain/riscv64-linux-musleabi_for_x86_64-pc-linux-gnu/bin/../lib/gcc/riscv64-unknown-linux-musl/10.1.0/../../../../riscv64-unknown-linux-musl/lib/libc.a(__errno_location.o)
 .text.__errno_location
                0x0000000200002cfc        0x8 /home/zbtrs/ospp/rt-thread/bsp/toolchain/riscv64-linux-musleabi_for_x86_64-pc-linux-gnu/bin/../lib/gcc/riscv64-unknown-linux-musl/10.1.0/../../../../riscv64-unknown-linux-musl/lib/libc.a(__errno_location.o)
                0x0000000200002cfc                ___errno_location
                0x0000000200002cfc                __errno_location
 .text          0x0000000200002d04        0x0 /home/zbtrs/ospp/rt-thread/bsp/toolchain/riscv64-linux-musleabi_for_x86_64-pc-linux-gnu/bin/../lib/gcc/riscv64-unknown-linux-musl/10.1.0/../../../../riscv64-unknown-linux-musl/lib/libc.a(strerror.o)
 .text.__strerror_l
                0x0000000200002d04       0x54 /home/zbtrs/ospp/rt-thread/bsp/toolchain/riscv64-linux-musleabi_for_x86_64-pc-linux-gnu/bin/../lib/gcc/riscv64-unknown-linux-musl/10.1.0/../../../../riscv64-unknown-linux-musl/lib/libc.a(strerror.o)
                0x0000000200002d04                strerror_l
                0x0000000200002d04                __strerror_l
 .text.strerror
                0x0000000200002d58        0x8 /home/zbtrs/ospp/rt-thread/bsp/toolchain/riscv64-linux-musleabi_for_x86_64-pc-linux-gnu/bin/../lib/gcc/riscv64-unknown-linux-musl/10.1.0/../../../../riscv64-unknown-linux-musl/lib/libc.a(strerror.o)
                0x0000000200002d58                strerror
 .text          0x0000000200002d60        0x0 /home/zbtrs/ospp/rt-thread/bsp/toolchain/riscv64-linux-musleabi_for_x86_64-pc-linux-gnu/bin/../lib/gcc/riscv64-unknown-linux-musl/10.1.0/../../../../riscv64-unknown-linux-musl/lib/libc.a(exit.o)
 .text.dummy    0x0000000200002d60        0x2 /home/zbtrs/ospp/rt-thread/bsp/toolchain/riscv64-linux-musleabi_for_x86_64-pc-linux-gnu/bin/../lib/gcc/riscv64-unknown-linux-musl/10.1.0/../../../../riscv64-unknown-linux-musl/lib/libc.a(exit.o)
                0x0000000200002d60                __funcs_on_exit
                0x0000000200002d60                _fini
 .text.libc_exit_fini
                0x0000000200002d62       0x32 /home/zbtrs/ospp/rt-thread/bsp/toolchain/riscv64-linux-musleabi_for_x86_64-pc-linux-gnu/bin/../lib/gcc/riscv64-unknown-linux-musl/10.1.0/../../../../riscv64-unknown-linux-musl/lib/libc.a(exit.o)
                0x0000000200002d62                __libc_exit_fini
 .text.exit     0x0000000200002d94       0x1a /home/zbtrs/ospp/rt-thread/bsp/toolchain/riscv64-linux-musleabi_for_x86_64-pc-linux-gnu/bin/../lib/gcc/riscv64-unknown-linux-musl/10.1.0/../../../../riscv64-unknown-linux-musl/lib/libc.a(exit.o)
                0x0000000200002d94                exit
 .text          0x0000000200002dae        0x0 /home/zbtrs/ospp/rt-thread/bsp/toolchain/riscv64-linux-musleabi_for_x86_64-pc-linux-gnu/bin/../lib/gcc/riscv64-unknown-linux-musl/10.1.0/../../../../riscv64-unknown-linux-musl/lib/libc.a(fcntl.o)
 .text.fcntl    0x0000000200002dae      0x186 /home/zbtrs/ospp/rt-thread/bsp/toolchain/riscv64-linux-musleabi_for_x86_64-pc-linux-gnu/bin/../lib/gcc/riscv64-unknown-linux-musl/10.1.0/../../../../riscv64-unknown-linux-musl/lib/libc.a(fcntl.o)
                0x0000000200002dae                fcntl
 .text          0x0000000200002f34        0x0 /home/zbtrs/ospp/rt-thread/bsp/toolchain/riscv64-linux-musleabi_for_x86_64-pc-linux-gnu/bin/../lib/gcc/riscv64-unknown-linux-musl/10.1.0/../../../../riscv64-unknown-linux-musl/lib/libc.a(libc.o)
 *fill*         0x0000000200002f34        0x4 
 .text          0x0000000200002f38       0x1e /home/zbtrs/ospp/rt-thread/bsp/toolchain/riscv64-linux-musleabi_for_x86_64-pc-linux-gnu/bin/../lib/gcc/riscv64-unknown-linux-musl/10.1.0/../../../../riscv64-unknown-linux-musl/lib/libc.a(syscall.o)
                0x0000000200002f38                __syscall
                0x0000000200002f3c                syscall
 .text          0x0000000200002f56        0x0 /home/zbtrs/ospp/rt-thread/bsp/toolchain/riscv64-linux-musleabi_for_x86_64-pc-linux-gnu/bin/../lib/gcc/riscv64-unknown-linux-musl/10.1.0/../../../../riscv64-unknown-linux-musl/lib/libc.a(syscall.o)
 .text.syscall_set_thread_area
                0x0000000200002f56        0x8 /home/zbtrs/ospp/rt-thread/bsp/toolchain/riscv64-linux-musleabi_for_x86_64-pc-linux-gnu/bin/../lib/gcc/riscv64-unknown-linux-musl/10.1.0/../../../../riscv64-unknown-linux-musl/lib/libc.a(syscall.o)
 .text.syscall_mq_close
                0x0000000200002f5e        0x8 /home/zbtrs/ospp/rt-thread/bsp/toolchain/riscv64-linux-musleabi_for_x86_64-pc-linux-gnu/bin/../lib/gcc/riscv64-unknown-linux-musl/10.1.0/../../../../riscv64-unknown-linux-musl/lib/libc.a(syscall.o)
 .text.syscall_shmdt
                0x0000000200002f66        0x8 /home/zbtrs/ospp/rt-thread/bsp/toolchain/riscv64-linux-musleabi_for_x86_64-pc-linux-gnu/bin/../lib/gcc/riscv64-unknown-linux-musl/10.1.0/../../../../riscv64-unknown-linux-musl/lib/libc.a(syscall.o)
 .text.syscall_mq_unlink
                0x0000000200002f6e        0x8 /home/zbtrs/ospp/rt-thread/bsp/toolchain/riscv64-linux-musleabi_for_x86_64-pc-linux-gnu/bin/../lib/gcc/riscv64-unknown-linux-musl/10.1.0/../../../../riscv64-unknown-linux-musl/lib/libc.a(syscall.o)
 .text.syscall_timer_delete
                0x0000000200002f76        0x8 /home/zbtrs/ospp/rt-thread/bsp/toolchain/riscv64-linux-musleabi_for_x86_64-pc-linux-gnu/bin/../lib/gcc/riscv64-unknown-linux-musl/10.1.0/../../../../riscv64-unknown-linux-musl/lib/libc.a(syscall.o)
 .text.syscall_timer_getoverrun
                0x0000000200002f7e        0x8 /home/zbtrs/ospp/rt-thread/bsp/toolchain/riscv64-linux-musleabi_for_x86_64-pc-linux-gnu/bin/../lib/gcc/riscv64-unknown-linux-musl/10.1.0/../../../../riscv64-unknown-linux-musl/lib/libc.a(syscall.o)
 .text.syscall_set_tid_address
                0x0000000200002f86        0x8 /home/zbtrs/ospp/rt-thread/bsp/toolchain/riscv64-linux-musleabi_for_x86_64-pc-linux-gnu/bin/../lib/gcc/riscv64-unknown-linux-musl/10.1.0/../../../../riscv64-unknown-linux-musl/lib/libc.a(syscall.o)
 .text.syscall_exit_group
                0x0000000200002f8e        0x8 /home/zbtrs/ospp/rt-thread/bsp/toolchain/riscv64-linux-musleabi_for_x86_64-pc-linux-gnu/bin/../lib/gcc/riscv64-unknown-linux-musl/10.1.0/../../../../riscv64-unknown-linux-musl/lib/libc.a(syscall.o)
 .text.syscall_sched_get_priority_min
                0x0000000200002f96        0x8 /home/zbtrs/ospp/rt-thread/bsp/toolchain/riscv64-linux-musleabi_for_x86_64-pc-linux-gnu/bin/../lib/gcc/riscv64-unknown-linux-musl/10.1.0/../../../../riscv64-unknown-linux-musl/lib/libc.a(syscall.o)
 .text.syscall_sched_get_priority_max
                0x0000000200002f9e        0x8 /home/zbtrs/ospp/rt-thread/bsp/toolchain/riscv64-linux-musleabi_for_x86_64-pc-linux-gnu/bin/../lib/gcc/riscv64-unknown-linux-musl/10.1.0/../../../../riscv64-unknown-linux-musl/lib/libc.a(syscall.o)
 .text.syscall_uname
                0x0000000200002fa6        0x8 /home/zbtrs/ospp/rt-thread/bsp/toolchain/riscv64-linux-musleabi_for_x86_64-pc-linux-gnu/bin/../lib/gcc/riscv64-unknown-linux-musl/10.1.0/../../../../riscv64-unknown-linux-musl/lib/libc.a(syscall.o)
 .text.syscall_fsync
                0x0000000200002fae        0x8 /home/zbtrs/ospp/rt-thread/bsp/toolchain/riscv64-linux-musleabi_for_x86_64-pc-linux-gnu/bin/../lib/gcc/riscv64-unknown-linux-musl/10.1.0/../../../../riscv64-unknown-linux-musl/lib/libc.a(syscall.o)
 .text.syscall_sysinfo
                0x0000000200002fb6        0x8 /home/zbtrs/ospp/rt-thread/bsp/toolchain/riscv64-linux-musleabi_for_x86_64-pc-linux-gnu/bin/../lib/gcc/riscv64-unknown-linux-musl/10.1.0/../../../../riscv64-unknown-linux-musl/lib/libc.a(syscall.o)
 .text.syscall_reboot
                0x0000000200002fbe        0x8 /home/zbtrs/ospp/rt-thread/bsp/toolchain/riscv64-linux-musleabi_for_x86_64-pc-linux-gnu/bin/../lib/gcc/riscv64-unknown-linux-musl/10.1.0/../../../../riscv64-unknown-linux-musl/lib/libc.a(syscall.o)
 .text.syscall_brk
                0x0000000200002fc6        0x8 /home/zbtrs/ospp/rt-thread/bsp/toolchain/riscv64-linux-musleabi_for_x86_64-pc-linux-gnu/bin/../lib/gcc/riscv64-unknown-linux-musl/10.1.0/../../../../riscv64-unknown-linux-musl/lib/libc.a(syscall.o)
 .text.syscall_pipe
                0x0000000200002fce        0x8 /home/zbtrs/ospp/rt-thread/bsp/toolchain/riscv64-linux-musleabi_for_x86_64-pc-linux-gnu/bin/../lib/gcc/riscv64-unknown-linux-musl/10.1.0/../../../../riscv64-unknown-linux-musl/lib/libc.a(syscall.o)
 .text.syscall_dup
                0x0000000200002fd6        0x8 /home/zbtrs/ospp/rt-thread/bsp/toolchain/riscv64-linux-musleabi_for_x86_64-pc-linux-gnu/bin/../lib/gcc/riscv64-unknown-linux-musl/10.1.0/../../../../riscv64-unknown-linux-musl/lib/libc.a(syscall.o)
 .text.syscall_rmdir
                0x0000000200002fde        0x8 /home/zbtrs/ospp/rt-thread/bsp/toolchain/riscv64-linux-musleabi_for_x86_64-pc-linux-gnu/bin/../lib/gcc/riscv64-unknown-linux-musl/10.1.0/../../../../riscv64-unknown-linux-musl/lib/libc.a(syscall.o)
 .text.syscall_chdir
                0x0000000200002fe6        0x8 /home/zbtrs/ospp/rt-thread/bsp/toolchain/riscv64-linux-musleabi_for_x86_64-pc-linux-gnu/bin/../lib/gcc/riscv64-unknown-linux-musl/10.1.0/../../../../riscv64-unknown-linux-musl/lib/libc.a(syscall.o)
 .text.syscall_unlink
                0x0000000200002fee        0x8 /home/zbtrs/ospp/rt-thread/bsp/toolchain/riscv64-linux-musleabi_for_x86_64-pc-linux-gnu/bin/../lib/gcc/riscv64-unknown-linux-musl/10.1.0/../../../../riscv64-unknown-linux-musl/lib/libc.a(syscall.o)
 .text.syscall_close
                0x0000000200002ff6        0x6 /home/zbtrs/ospp/rt-thread/bsp/toolchain/riscv64-linux-musleabi_for_x86_64-pc-linux-gnu/bin/../lib/gcc/riscv64-unknown-linux-musl/10.1.0/../../../../riscv64-unknown-linux-musl/lib/libc.a(syscall.o)
 .text.syscall_exit
                0x0000000200002ffc        0x6 /home/zbtrs/ospp/rt-thread/bsp/toolchain/riscv64-linux-musleabi_for_x86_64-pc-linux-gnu/bin/../lib/gcc/riscv64-unknown-linux-musl/10.1.0/../../../../riscv64-unknown-linux-musl/lib/libc.a(syscall.o)
 .text.syscall_timerfd_create
                0x0000000200003002       0x30 /home/zbtrs/ospp/rt-thread/bsp/toolchain/riscv64-linux-musleabi_for_x86_64-pc-linux-gnu/bin/../lib/gcc/riscv64-unknown-linux-musl/10.1.0/../../../../riscv64-unknown-linux-musl/lib/libc.a(syscall.o)
 .text.syscall_listen
                0x0000000200003032        0xa /home/zbtrs/ospp/rt-thread/bsp/toolchain/riscv64-linux-musleabi_for_x86_64-pc-linux-gnu/bin/../lib/gcc/riscv64-unknown-linux-musl/10.1.0/../../../../riscv64-unknown-linux-musl/lib/libc.a(syscall.o)
 .text.syscall_mq_notify
                0x000000020000303c        0xa /home/zbtrs/ospp/rt-thread/bsp/toolchain/riscv64-linux-musleabi_for_x86_64-pc-linux-gnu/bin/../lib/gcc/riscv64-unknown-linux-musl/10.1.0/../../../../riscv64-unknown-linux-musl/lib/libc.a(syscall.o)
 .text.syscall_clock_getres
                0x0000000200003046        0xa /home/zbtrs/ospp/rt-thread/bsp/toolchain/riscv64-linux-musleabi_for_x86_64-pc-linux-gnu/bin/../lib/gcc/riscv64-unknown-linux-musl/10.1.0/../../../../riscv64-unknown-linux-musl/lib/libc.a(syscall.o)
 .text.syscall_clock_gettime
                0x0000000200003050        0xa /home/zbtrs/ospp/rt-thread/bsp/toolchain/riscv64-linux-musleabi_for_x86_64-pc-linux-gnu/bin/../lib/gcc/riscv64-unknown-linux-musl/10.1.0/../../../../riscv64-unknown-linux-musl/lib/libc.a(syscall.o)
 .text.syscall_clock_settime
                0x000000020000305a        0xa /home/zbtrs/ospp/rt-thread/bsp/toolchain/riscv64-linux-musleabi_for_x86_64-pc-linux-gnu/bin/../lib/gcc/riscv64-unknown-linux-musl/10.1.0/../../../../riscv64-unknown-linux-musl/lib/libc.a(syscall.o)
 .text.syscall_timer_gettime
                0x0000000200003064        0xa /home/zbtrs/ospp/rt-thread/bsp/toolchain/riscv64-linux-musleabi_for_x86_64-pc-linux-gnu/bin/../lib/gcc/riscv64-unknown-linux-musl/10.1.0/../../../../riscv64-unknown-linux-musl/lib/libc.a(syscall.o)
 .text.syscall_tkill
                0x000000020000306e       0x18 /home/zbtrs/ospp/rt-thread/bsp/toolchain/riscv64-linux-musleabi_for_x86_64-pc-linux-gnu/bin/../lib/gcc/riscv64-unknown-linux-musl/10.1.0/../../../../riscv64-unknown-linux-musl/lib/libc.a(syscall.o)
 .text.syscall_fstat64
                0x0000000200003086        0x8 /home/zbtrs/ospp/rt-thread/bsp/toolchain/riscv64-linux-musleabi_for_x86_64-pc-linux-gnu/bin/../lib/gcc/riscv64-unknown-linux-musl/10.1.0/../../../../riscv64-unknown-linux-musl/lib/libc.a(syscall.o)
 .text.syscall_ugetrlimit
                0x000000020000308e        0xe /home/zbtrs/ospp/rt-thread/bsp/toolchain/riscv64-linux-musleabi_for_x86_64-pc-linux-gnu/bin/../lib/gcc/riscv64-unknown-linux-musl/10.1.0/../../../../riscv64-unknown-linux-musl/lib/libc.a(syscall.o)
 .text.syscall_getcwd
                0x000000020000309c        0xa /home/zbtrs/ospp/rt-thread/bsp/toolchain/riscv64-linux-musleabi_for_x86_64-pc-linux-gnu/bin/../lib/gcc/riscv64-unknown-linux-musl/10.1.0/../../../../riscv64-unknown-linux-musl/lib/libc.a(syscall.o)
 .text.syscall_nanosleep
                0x00000002000030a6        0x8 /home/zbtrs/ospp/rt-thread/bsp/toolchain/riscv64-linux-musleabi_for_x86_64-pc-linux-gnu/bin/../lib/gcc/riscv64-unknown-linux-musl/10.1.0/../../../../riscv64-unknown-linux-musl/lib/libc.a(syscall.o)
 .text.syscall_sched_getparam
                0x00000002000030ae        0xa /home/zbtrs/ospp/rt-thread/bsp/toolchain/riscv64-linux-musleabi_for_x86_64-pc-linux-gnu/bin/../lib/gcc/riscv64-unknown-linux-musl/10.1.0/../../../../riscv64-unknown-linux-musl/lib/libc.a(syscall.o)
 .text.syscall_sched_setparam
                0x00000002000030b8        0xa /home/zbtrs/ospp/rt-thread/bsp/toolchain/riscv64-linux-musleabi_for_x86_64-pc-linux-gnu/bin/../lib/gcc/riscv64-unknown-linux-musl/10.1.0/../../../../riscv64-unknown-linux-musl/lib/libc.a(syscall.o)
 .text.syscall_lstat
                0x00000002000030c2        0xa /home/zbtrs/ospp/rt-thread/bsp/toolchain/riscv64-linux-musleabi_for_x86_64-pc-linux-gnu/bin/../lib/gcc/riscv64-unknown-linux-musl/10.1.0/../../../../riscv64-unknown-linux-musl/lib/libc.a(syscall.o)
 .text.syscall_stat
                0x00000002000030cc        0xa /home/zbtrs/ospp/rt-thread/bsp/toolchain/riscv64-linux-musleabi_for_x86_64-pc-linux-gnu/bin/../lib/gcc/riscv64-unknown-linux-musl/10.1.0/../../../../riscv64-unknown-linux-musl/lib/libc.a(syscall.o)
 .text.syscall_fstatfs
                0x00000002000030d6        0xa /home/zbtrs/ospp/rt-thread/bsp/toolchain/riscv64-linux-musleabi_for_x86_64-pc-linux-gnu/bin/../lib/gcc/riscv64-unknown-linux-musl/10.1.0/../../../../riscv64-unknown-linux-musl/lib/libc.a(syscall.o)
 .text.syscall_statfs
                0x00000002000030e0        0xa /home/zbtrs/ospp/rt-thread/bsp/toolchain/riscv64-linux-musleabi_for_x86_64-pc-linux-gnu/bin/../lib/gcc/riscv64-unknown-linux-musl/10.1.0/../../../../riscv64-unknown-linux-musl/lib/libc.a(syscall.o)
 .text.syscall_munmap
                0x00000002000030ea        0xa /home/zbtrs/ospp/rt-thread/bsp/toolchain/riscv64-linux-musleabi_for_x86_64-pc-linux-gnu/bin/../lib/gcc/riscv64-unknown-linux-musl/10.1.0/../../../../riscv64-unknown-linux-musl/lib/libc.a(syscall.o)
 .text.syscall_symlink
                0x00000002000030f4        0xa /home/zbtrs/ospp/rt-thread/bsp/toolchain/riscv64-linux-musleabi_for_x86_64-pc-linux-gnu/bin/../lib/gcc/riscv64-unknown-linux-musl/10.1.0/../../../../riscv64-unknown-linux-musl/lib/libc.a(syscall.o)
 .text.syscall_setrlimit
                0x00000002000030fe        0xa /home/zbtrs/ospp/rt-thread/bsp/toolchain/riscv64-linux-musleabi_for_x86_64-pc-linux-gnu/bin/../lib/gcc/riscv64-unknown-linux-musl/10.1.0/../../../../riscv64-unknown-linux-musl/lib/libc.a(syscall.o)
 .text.syscall_dup2
                0x0000000200003108        0xa /home/zbtrs/ospp/rt-thread/bsp/toolchain/riscv64-linux-musleabi_for_x86_64-pc-linux-gnu/bin/../lib/gcc/riscv64-unknown-linux-musl/10.1.0/../../../../riscv64-unknown-linux-musl/lib/libc.a(syscall.o)
 .text.syscall_umount2
                0x0000000200003112        0xa /home/zbtrs/ospp/rt-thread/bsp/toolchain/riscv64-linux-musleabi_for_x86_64-pc-linux-gnu/bin/../lib/gcc/riscv64-unknown-linux-musl/10.1.0/../../../../riscv64-unknown-linux-musl/lib/libc.a(syscall.o)
 .text.syscall_mkdir
                0x000000020000311c        0xe /home/zbtrs/ospp/rt-thread/bsp/toolchain/riscv64-linux-musleabi_for_x86_64-pc-linux-gnu/bin/../lib/gcc/riscv64-unknown-linux-musl/10.1.0/../../../../riscv64-unknown-linux-musl/lib/libc.a(syscall.o)
 .text.syscall_rename
                0x000000020000312a        0xa /home/zbtrs/ospp/rt-thread/bsp/toolchain/riscv64-linux-musleabi_for_x86_64-pc-linux-gnu/bin/../lib/gcc/riscv64-unknown-linux-musl/10.1.0/../../../../riscv64-unknown-linux-musl/lib/libc.a(syscall.o)
 .text.syscall_kill
                0x0000000200003134        0x8 /home/zbtrs/ospp/rt-thread/bsp/toolchain/riscv64-linux-musleabi_for_x86_64-pc-linux-gnu/bin/../lib/gcc/riscv64-unknown-linux-musl/10.1.0/../../../../riscv64-unknown-linux-musl/lib/libc.a(syscall.o)
 .text.syscall_access
                0x000000020000313c        0xa /home/zbtrs/ospp/rt-thread/bsp/toolchain/riscv64-linux-musleabi_for_x86_64-pc-linux-gnu/bin/../lib/gcc/riscv64-unknown-linux-musl/10.1.0/../../../../riscv64-unknown-linux-musl/lib/libc.a(syscall.o)
 .text.syscall_chmod
                0x0000000200003146        0xe /home/zbtrs/ospp/rt-thread/bsp/toolchain/riscv64-linux-musleabi_for_x86_64-pc-linux-gnu/bin/../lib/gcc/riscv64-unknown-linux-musl/10.1.0/../../../../riscv64-unknown-linux-musl/lib/libc.a(syscall.o)
 .text.syscall_link
                0x0000000200003154        0xa /home/zbtrs/ospp/rt-thread/bsp/toolchain/riscv64-linux-musleabi_for_x86_64-pc-linux-gnu/bin/../lib/gcc/riscv64-unknown-linux-musl/10.1.0/../../../../riscv64-unknown-linux-musl/lib/libc.a(syscall.o)
 .text.syscall_getrandom
                0x000000020000315e       0x10 /home/zbtrs/ospp/rt-thread/bsp/toolchain/riscv64-linux-musleabi_for_x86_64-pc-linux-gnu/bin/../lib/gcc/riscv64-unknown-linux-musl/10.1.0/../../../../riscv64-unknown-linux-musl/lib/libc.a(syscall.o)
 .text.syscall_shmctl
                0x000000020000316e        0xc /home/zbtrs/ospp/rt-thread/bsp/toolchain/riscv64-linux-musleabi_for_x86_64-pc-linux-gnu/bin/../lib/gcc/riscv64-unknown-linux-musl/10.1.0/../../../../riscv64-unknown-linux-musl/lib/libc.a(syscall.o)
 .text.syscall_shmget
                0x000000020000317a        0xc /home/zbtrs/ospp/rt-thread/bsp/toolchain/riscv64-linux-musleabi_for_x86_64-pc-linux-gnu/bin/../lib/gcc/riscv64-unknown-linux-musl/10.1.0/../../../../riscv64-unknown-linux-musl/lib/libc.a(syscall.o)
 .text.syscall_shmat
                0x0000000200003186        0xc /home/zbtrs/ospp/rt-thread/bsp/toolchain/riscv64-linux-musleabi_for_x86_64-pc-linux-gnu/bin/../lib/gcc/riscv64-unknown-linux-musl/10.1.0/../../../../riscv64-unknown-linux-musl/lib/libc.a(syscall.o)
 .text.syscall_recvmsg
                0x0000000200003192        0xc /home/zbtrs/ospp/rt-thread/bsp/toolchain/riscv64-linux-musleabi_for_x86_64-pc-linux-gnu/bin/../lib/gcc/riscv64-unknown-linux-musl/10.1.0/../../../../riscv64-unknown-linux-musl/lib/libc.a(syscall.o)
 .text.syscall_sendmsg
                0x000000020000319e        0xc /home/zbtrs/ospp/rt-thread/bsp/toolchain/riscv64-linux-musleabi_for_x86_64-pc-linux-gnu/bin/../lib/gcc/riscv64-unknown-linux-musl/10.1.0/../../../../riscv64-unknown-linux-musl/lib/libc.a(syscall.o)
 .text.syscall_getpeername
                0x00000002000031aa        0xc /home/zbtrs/ospp/rt-thread/bsp/toolchain/riscv64-linux-musleabi_for_x86_64-pc-linux-gnu/bin/../lib/gcc/riscv64-unknown-linux-musl/10.1.0/../../../../riscv64-unknown-linux-musl/lib/libc.a(syscall.o)
 .text.syscall_getsockname
                0x00000002000031b6        0xc /home/zbtrs/ospp/rt-thread/bsp/toolchain/riscv64-linux-musleabi_for_x86_64-pc-linux-gnu/bin/../lib/gcc/riscv64-unknown-linux-musl/10.1.0/../../../../riscv64-unknown-linux-musl/lib/libc.a(syscall.o)
 .text.syscall_accept
                0x00000002000031c2        0xc /home/zbtrs/ospp/rt-thread/bsp/toolchain/riscv64-linux-musleabi_for_x86_64-pc-linux-gnu/bin/../lib/gcc/riscv64-unknown-linux-musl/10.1.0/../../../../riscv64-unknown-linux-musl/lib/libc.a(syscall.o)
 .text.syscall_connect
                0x00000002000031ce       0x12 /home/zbtrs/ospp/rt-thread/bsp/toolchain/riscv64-linux-musleabi_for_x86_64-pc-linux-gnu/bin/../lib/gcc/riscv64-unknown-linux-musl/10.1.0/../../../../riscv64-unknown-linux-musl/lib/libc.a(syscall.o)
 .text.syscall_bind
                0x00000002000031e0       0x12 /home/zbtrs/ospp/rt-thread/bsp/toolchain/riscv64-linux-musleabi_for_x86_64-pc-linux-gnu/bin/../lib/gcc/riscv64-unknown-linux-musl/10.1.0/../../../../riscv64-unknown-linux-musl/lib/libc.a(syscall.o)
 .text.syscall_socket
                0x00000002000031f2        0xe /home/zbtrs/ospp/rt-thread/bsp/toolchain/riscv64-linux-musleabi_for_x86_64-pc-linux-gnu/bin/../lib/gcc/riscv64-unknown-linux-musl/10.1.0/../../../../riscv64-unknown-linux-musl/lib/libc.a(syscall.o)
 .text.syscall_mq_getsetattr
                0x0000000200003200        0xe /home/zbtrs/ospp/rt-thread/bsp/toolchain/riscv64-linux-musleabi_for_x86_64-pc-linux-gnu/bin/../lib/gcc/riscv64-unknown-linux-musl/10.1.0/../../../../riscv64-unknown-linux-musl/lib/libc.a(syscall.o)
 .text.syscall_fstatfs64
                0x000000020000320e        0xe /home/zbtrs/ospp/rt-thread/bsp/toolchain/riscv64-linux-musleabi_for_x86_64-pc-linux-gnu/bin/../lib/gcc/riscv64-unknown-linux-musl/10.1.0/../../../../riscv64-unknown-linux-musl/lib/libc.a(syscall.o)
 .text.syscall_statfs64
                0x000000020000321c        0xe /home/zbtrs/ospp/rt-thread/bsp/toolchain/riscv64-linux-musleabi_for_x86_64-pc-linux-gnu/bin/../lib/gcc/riscv64-unknown-linux-musl/10.1.0/../../../../riscv64-unknown-linux-musl/lib/libc.a(syscall.o)
 .text.syscall_timer_create
                0x000000020000322a        0xe /home/zbtrs/ospp/rt-thread/bsp/toolchain/riscv64-linux-musleabi_for_x86_64-pc-linux-gnu/bin/../lib/gcc/riscv64-unknown-linux-musl/10.1.0/../../../../riscv64-unknown-linux-musl/lib/libc.a(syscall.o)
 .text.syscall_sched_getaffinity
                0x0000000200003238       0x1a /home/zbtrs/ospp/rt-thread/bsp/toolchain/riscv64-linux-musleabi_for_x86_64-pc-linux-gnu/bin/../lib/gcc/riscv64-unknown-linux-musl/10.1.0/../../../../riscv64-unknown-linux-musl/lib/libc.a(syscall.o)
 .text.syscall_sched_setaffinity
                0x0000000200003252       0x1a /home/zbtrs/ospp/rt-thread/bsp/toolchain/riscv64-linux-musleabi_for_x86_64-pc-linux-gnu/bin/../lib/gcc/riscv64-unknown-linux-musl/10.1.0/../../../../riscv64-unknown-linux-musl/lib/libc.a(syscall.o)
 .text.syscall_madvise
                0x000000020000326c        0xe /home/zbtrs/ospp/rt-thread/bsp/toolchain/riscv64-linux-musleabi_for_x86_64-pc-linux-gnu/bin/../lib/gcc/riscv64-unknown-linux-musl/10.1.0/../../../../riscv64-unknown-linux-musl/lib/libc.a(syscall.o)
 .text.syscall_poll
                0x000000020000327a        0xc /home/zbtrs/ospp/rt-thread/bsp/toolchain/riscv64-linux-musleabi_for_x86_64-pc-linux-gnu/bin/../lib/gcc/riscv64-unknown-linux-musl/10.1.0/../../../../riscv64-unknown-linux-musl/lib/libc.a(syscall.o)
 .text.syscall_sched_getscheduler
                0x0000000200003286        0xe /home/zbtrs/ospp/rt-thread/bsp/toolchain/riscv64-linux-musleabi_for_x86_64-pc-linux-gnu/bin/../lib/gcc/riscv64-unknown-linux-musl/10.1.0/../../../../riscv64-unknown-linux-musl/lib/libc.a(syscall.o)
 .text.syscall_sched_setscheduler
                0x0000000200003294        0xe /home/zbtrs/ospp/rt-thread/bsp/toolchain/riscv64-linux-musleabi_for_x86_64-pc-linux-gnu/bin/../lib/gcc/riscv64-unknown-linux-musl/10.1.0/../../../../riscv64-unknown-linux-musl/lib/libc.a(syscall.o)
 .text.syscall_writev
                0x00000002000032a2       0x64 /home/zbtrs/ospp/rt-thread/bsp/toolchain/riscv64-linux-musleabi_for_x86_64-pc-linux-gnu/bin/../lib/gcc/riscv64-unknown-linux-musl/10.1.0/../../../../riscv64-unknown-linux-musl/lib/libc.a(syscall.o)
 .text.syscall_readv
                0x0000000200003306       0x5e /home/zbtrs/ospp/rt-thread/bsp/toolchain/riscv64-linux-musleabi_for_x86_64-pc-linux-gnu/bin/../lib/gcc/riscv64-unknown-linux-musl/10.1.0/../../../../riscv64-unknown-linux-musl/lib/libc.a(syscall.o)
 .text.syscall_getdents
                0x0000000200003364        0xe /home/zbtrs/ospp/rt-thread/bsp/toolchain/riscv64-linux-musleabi_for_x86_64-pc-linux-gnu/bin/../lib/gcc/riscv64-unknown-linux-musl/10.1.0/../../../../riscv64-unknown-linux-musl/lib/libc.a(syscall.o)
 .text.syscall__llseek
                0x0000000200003372       0x2a /home/zbtrs/ospp/rt-thread/bsp/toolchain/riscv64-linux-musleabi_for_x86_64-pc-linux-gnu/bin/../lib/gcc/riscv64-unknown-linux-musl/10.1.0/../../../../riscv64-unknown-linux-musl/lib/libc.a(syscall.o)
 .text.syscall_readlink
                0x000000020000339c        0xe /home/zbtrs/ospp/rt-thread/bsp/toolchain/riscv64-linux-musleabi_for_x86_64-pc-linux-gnu/bin/../lib/gcc/riscv64-unknown-linux-musl/10.1.0/../../../../riscv64-unknown-linux-musl/lib/libc.a(syscall.o)
 .text.syscall_fcntl
                0x00000002000033aa        0xc /home/zbtrs/ospp/rt-thread/bsp/toolchain/riscv64-linux-musleabi_for_x86_64-pc-linux-gnu/bin/../lib/gcc/riscv64-unknown-linux-musl/10.1.0/../../../../riscv64-unknown-linux-musl/lib/libc.a(syscall.o)
 .text.syscall_execve
                0x00000002000033b6        0xe /home/zbtrs/ospp/rt-thread/bsp/toolchain/riscv64-linux-musleabi_for_x86_64-pc-linux-gnu/bin/../lib/gcc/riscv64-unknown-linux-musl/10.1.0/../../../../riscv64-unknown-linux-musl/lib/libc.a(syscall.o)
 .text.syscall_open
                0x00000002000033c4       0x10 /home/zbtrs/ospp/rt-thread/bsp/toolchain/riscv64-linux-musleabi_for_x86_64-pc-linux-gnu/bin/../lib/gcc/riscv64-unknown-linux-musl/10.1.0/../../../../riscv64-unknown-linux-musl/lib/libc.a(syscall.o)
 .text.syscall_write
                0x00000002000033d4        0xc /home/zbtrs/ospp/rt-thread/bsp/toolchain/riscv64-linux-musleabi_for_x86_64-pc-linux-gnu/bin/../lib/gcc/riscv64-unknown-linux-musl/10.1.0/../../../../riscv64-unknown-linux-musl/lib/libc.a(syscall.o)
 .text.syscall_read
                0x00000002000033e0        0xc /home/zbtrs/ospp/rt-thread/bsp/toolchain/riscv64-linux-musleabi_for_x86_64-pc-linux-gnu/bin/../lib/gcc/riscv64-unknown-linux-musl/10.1.0/../../../../riscv64-unknown-linux-musl/lib/libc.a(syscall.o)
 .text.syscall_prlimit64
                0x00000002000033ec       0x14 /home/zbtrs/ospp/rt-thread/bsp/toolchain/riscv64-linux-musleabi_for_x86_64-pc-linux-gnu/bin/../lib/gcc/riscv64-unknown-linux-musl/10.1.0/../../../../riscv64-unknown-linux-musl/lib/libc.a(syscall.o)
 .text.syscall_openat
                0x0000000200003400       0x14 /home/zbtrs/ospp/rt-thread/bsp/toolchain/riscv64-linux-musleabi_for_x86_64-pc-linux-gnu/bin/../lib/gcc/riscv64-unknown-linux-musl/10.1.0/../../../../riscv64-unknown-linux-musl/lib/libc.a(syscall.o)
 .text.syscall_recv
                0x0000000200003414       0x10 /home/zbtrs/ospp/rt-thread/bsp/toolchain/riscv64-linux-musleabi_for_x86_64-pc-linux-gnu/bin/../lib/gcc/riscv64-unknown-linux-musl/10.1.0/../../../../riscv64-unknown-linux-musl/lib/libc.a(syscall.o)
 .text.syscall_send
                0x0000000200003424       0x10 /home/zbtrs/ospp/rt-thread/bsp/toolchain/riscv64-linux-musleabi_for_x86_64-pc-linux-gnu/bin/../lib/gcc/riscv64-unknown-linux-musl/10.1.0/../../../../riscv64-unknown-linux-musl/lib/libc.a(syscall.o)
 .text.syscall_mq_open
                0x0000000200003434       0x14 /home/zbtrs/ospp/rt-thread/bsp/toolchain/riscv64-linux-musleabi_for_x86_64-pc-linux-gnu/bin/../lib/gcc/riscv64-unknown-linux-musl/10.1.0/../../../../riscv64-unknown-linux-musl/lib/libc.a(syscall.o)
 .text.syscall_clock_nanosleep
                0x0000000200003448       0x10 /home/zbtrs/ospp/rt-thread/bsp/toolchain/riscv64-linux-musleabi_for_x86_64-pc-linux-gnu/bin/../lib/gcc/riscv64-unknown-linux-musl/10.1.0/../../../../riscv64-unknown-linux-musl/lib/libc.a(syscall.o)
 .text.syscall_timer_settime
                0x0000000200003458       0x10 /home/zbtrs/ospp/rt-thread/bsp/toolchain/riscv64-linux-musleabi_for_x86_64-pc-linux-gnu/bin/../lib/gcc/riscv64-unknown-linux-musl/10.1.0/../../../../riscv64-unknown-linux-musl/lib/libc.a(syscall.o)
 .text.syscall_rt_sigprocmask
                0x0000000200003468       0x1c /home/zbtrs/ospp/rt-thread/bsp/toolchain/riscv64-linux-musleabi_for_x86_64-pc-linux-gnu/bin/../lib/gcc/riscv64-unknown-linux-musl/10.1.0/../../../../riscv64-unknown-linux-musl/lib/libc.a(syscall.o)
 .text.syscall_rt_sigaction
                0x0000000200003484       0x1c /home/zbtrs/ospp/rt-thread/bsp/toolchain/riscv64-linux-musleabi_for_x86_64-pc-linux-gnu/bin/../lib/gcc/riscv64-unknown-linux-musl/10.1.0/../../../../riscv64-unknown-linux-musl/lib/libc.a(syscall.o)
 .text.syscall_sigprocmask
                0x00000002000034a0       0x1e /home/zbtrs/ospp/rt-thread/bsp/toolchain/riscv64-linux-musleabi_for_x86_64-pc-linux-gnu/bin/../lib/gcc/riscv64-unknown-linux-musl/10.1.0/../../../../riscv64-unknown-linux-musl/lib/libc.a(syscall.o)
 .text.syscall_sigaction
                0x00000002000034be       0x1e /home/zbtrs/ospp/rt-thread/bsp/toolchain/riscv64-linux-musleabi_for_x86_64-pc-linux-gnu/bin/../lib/gcc/riscv64-unknown-linux-musl/10.1.0/../../../../riscv64-unknown-linux-musl/lib/libc.a(syscall.o)
 .text.syscall_getsockopt
                0x00000002000034dc       0x12 /home/zbtrs/ospp/rt-thread/bsp/toolchain/riscv64-linux-musleabi_for_x86_64-pc-linux-gnu/bin/../lib/gcc/riscv64-unknown-linux-musl/10.1.0/../../../../riscv64-unknown-linux-musl/lib/libc.a(syscall.o)
 .text.syscall_setsockopt
                0x00000002000034ee       0x16 /home/zbtrs/ospp/rt-thread/bsp/toolchain/riscv64-linux-musleabi_for_x86_64-pc-linux-gnu/bin/../lib/gcc/riscv64-unknown-linux-musl/10.1.0/../../../../riscv64-unknown-linux-musl/lib/libc.a(syscall.o)
 .text.syscall_mq_timedreceive
                0x0000000200003504       0x12 /home/zbtrs/ospp/rt-thread/bsp/toolchain/riscv64-linux-musleabi_for_x86_64-pc-linux-gnu/bin/../lib/gcc/riscv64-unknown-linux-musl/10.1.0/../../../../riscv64-unknown-linux-musl/lib/libc.a(syscall.o)
 .text.syscall_mq_timedsend
                0x0000000200003516       0x16 /home/zbtrs/ospp/rt-thread/bsp/toolchain/riscv64-linux-musleabi_for_x86_64-pc-linux-gnu/bin/../lib/gcc/riscv64-unknown-linux-musl/10.1.0/../../../../riscv64-unknown-linux-musl/lib/libc.a(syscall.o)
 .text.syscall_mremap
                0x000000020000352c       0x12 /home/zbtrs/ospp/rt-thread/bsp/toolchain/riscv64-linux-musleabi_for_x86_64-pc-linux-gnu/bin/../lib/gcc/riscv64-unknown-linux-musl/10.1.0/../../../../riscv64-unknown-linux-musl/lib/libc.a(syscall.o)
 .text.syscall__newselect
                0x000000020000353e       0x12 /home/zbtrs/ospp/rt-thread/bsp/toolchain/riscv64-linux-musleabi_for_x86_64-pc-linux-gnu/bin/../lib/gcc/riscv64-unknown-linux-musl/10.1.0/../../../../riscv64-unknown-linux-musl/lib/libc.a(syscall.o)
 .text.syscall_mount
                0x0000000200003550       0x12 /home/zbtrs/ospp/rt-thread/bsp/toolchain/riscv64-linux-musleabi_for_x86_64-pc-linux-gnu/bin/../lib/gcc/riscv64-unknown-linux-musl/10.1.0/../../../../riscv64-unknown-linux-musl/lib/libc.a(syscall.o)
 .text.syscall_recvfrom
                0x0000000200003562       0x14 /home/zbtrs/ospp/rt-thread/bsp/toolchain/riscv64-linux-musleabi_for_x86_64-pc-linux-gnu/bin/../lib/gcc/riscv64-unknown-linux-musl/10.1.0/../../../../riscv64-unknown-linux-musl/lib/libc.a(syscall.o)
 .text.syscall_sendto
                0x0000000200003576       0x1a /home/zbtrs/ospp/rt-thread/bsp/toolchain/riscv64-linux-musleabi_for_x86_64-pc-linux-gnu/bin/../lib/gcc/riscv64-unknown-linux-musl/10.1.0/../../../../riscv64-unknown-linux-musl/lib/libc.a(syscall.o)
 .text.syscall_futex
                0x0000000200003590       0x20 /home/zbtrs/ospp/rt-thread/bsp/toolchain/riscv64-linux-musleabi_for_x86_64-pc-linux-gnu/bin/../lib/gcc/riscv64-unknown-linux-musl/10.1.0/../../../../riscv64-unknown-linux-musl/lib/libc.a(syscall.o)
 .text.syscall_mmap2
                0x00000002000035b0       0x14 /home/zbtrs/ospp/rt-thread/bsp/toolchain/riscv64-linux-musleabi_for_x86_64-pc-linux-gnu/bin/../lib/gcc/riscv64-unknown-linux-musl/10.1.0/../../../../riscv64-unknown-linux-musl/lib/libc.a(syscall.o)
 .text.syscall_gettid
                0x00000002000035c4        0x8 /home/zbtrs/ospp/rt-thread/bsp/toolchain/riscv64-linux-musleabi_for_x86_64-pc-linux-gnu/bin/../lib/gcc/riscv64-unknown-linux-musl/10.1.0/../../../../riscv64-unknown-linux-musl/lib/libc.a(syscall.o)
 .text.syscall_vfork
                0x00000002000035cc        0x8 /home/zbtrs/ospp/rt-thread/bsp/toolchain/riscv64-linux-musleabi_for_x86_64-pc-linux-gnu/bin/../lib/gcc/riscv64-unknown-linux-musl/10.1.0/../../../../riscv64-unknown-linux-musl/lib/libc.a(syscall.o)
 .text.syscall_sched_yield
                0x00000002000035d4        0x8 /home/zbtrs/ospp/rt-thread/bsp/toolchain/riscv64-linux-musleabi_for_x86_64-pc-linux-gnu/bin/../lib/gcc/riscv64-unknown-linux-musl/10.1.0/../../../../riscv64-unknown-linux-musl/lib/libc.a(syscall.o)
 .text.syscall_setsid
                0x00000002000035dc        0x8 /home/zbtrs/ospp/rt-thread/bsp/toolchain/riscv64-linux-musleabi_for_x86_64-pc-linux-gnu/bin/../lib/gcc/riscv64-unknown-linux-musl/10.1.0/../../../../riscv64-unknown-linux-musl/lib/libc.a(syscall.o)
 .text.syscall_getpid
                0x00000002000035e4        0x6 /home/zbtrs/ospp/rt-thread/bsp/toolchain/riscv64-linux-musleabi_for_x86_64-pc-linux-gnu/bin/../lib/gcc/riscv64-unknown-linux-musl/10.1.0/../../../../riscv64-unknown-linux-musl/lib/libc.a(syscall.o)
 .text.syscall_fork
                0x00000002000035ea        0x8 /home/zbtrs/ospp/rt-thread/bsp/toolchain/riscv64-linux-musleabi_for_x86_64-pc-linux-gnu/bin/../lib/gcc/riscv64-unknown-linux-musl/10.1.0/../../../../riscv64-unknown-linux-musl/lib/libc.a(syscall.o)
 .text.syscall_ioctl
                0x00000002000035f2       0x16 /home/zbtrs/ospp/rt-thread/bsp/toolchain/riscv64-linux-musleabi_for_x86_64-pc-linux-gnu/bin/../lib/gcc/riscv64-unknown-linux-musl/10.1.0/../../../../riscv64-unknown-linux-musl/lib/libc.a(syscall.o)
 .text.syscall_lseek
                0x0000000200003608       0x1e /home/zbtrs/ospp/rt-thread/bsp/toolchain/riscv64-linux-musleabi_for_x86_64-pc-linux-gnu/bin/../lib/gcc/riscv64-unknown-linux-musl/10.1.0/../../../../riscv64-unknown-linux-musl/lib/libc.a(syscall.o)
 .text.syscall_stat64
                0x0000000200003626        0xc /home/zbtrs/ospp/rt-thread/bsp/toolchain/riscv64-linux-musleabi_for_x86_64-pc-linux-gnu/bin/../lib/gcc/riscv64-unknown-linux-musl/10.1.0/../../../../riscv64-unknown-linux-musl/lib/libc.a(syscall.o)
 .text.syscall_lstat64
                0x0000000200003632        0xc /home/zbtrs/ospp/rt-thread/bsp/toolchain/riscv64-linux-musleabi_for_x86_64-pc-linux-gnu/bin/../lib/gcc/riscv64-unknown-linux-musl/10.1.0/../../../../riscv64-unknown-linux-musl/lib/libc.a(syscall.o)
 .text.syscall_getdents64
                0x000000020000363e        0xe /home/zbtrs/ospp/rt-thread/bsp/toolchain/riscv64-linux-musleabi_for_x86_64-pc-linux-gnu/bin/../lib/gcc/riscv64-unknown-linux-musl/10.1.0/../../../../riscv64-unknown-linux-musl/lib/libc.a(syscall.o)
 .text.syscall_fcntl64
                0x000000020000364c        0xc /home/zbtrs/ospp/rt-thread/bsp/toolchain/riscv64-linux-musleabi_for_x86_64-pc-linux-gnu/bin/../lib/gcc/riscv64-unknown-linux-musl/10.1.0/../../../../riscv64-unknown-linux-musl/lib/libc.a(syscall.o)
 .text.syscall_lchown
                0x0000000200003658       0x30 /home/zbtrs/ospp/rt-thread/bsp/toolchain/riscv64-linux-musleabi_for_x86_64-pc-linux-gnu/bin/../lib/gcc/riscv64-unknown-linux-musl/10.1.0/../../../../riscv64-unknown-linux-musl/lib/libc.a(syscall.o)
 .text.syscall_setreuid
                0x0000000200003688       0x30 /home/zbtrs/ospp/rt-thread/bsp/toolchain/riscv64-linux-musleabi_for_x86_64-pc-linux-gnu/bin/../lib/gcc/riscv64-unknown-linux-musl/10.1.0/../../../../riscv64-unknown-linux-musl/lib/libc.a(syscall.o)
 .text.syscall_setregid
                0x00000002000036b8       0x30 /home/zbtrs/ospp/rt-thread/bsp/toolchain/riscv64-linux-musleabi_for_x86_64-pc-linux-gnu/bin/../lib/gcc/riscv64-unknown-linux-musl/10.1.0/../../../../riscv64-unknown-linux-musl/lib/libc.a(syscall.o)
 .text.syscall_sigsuspend
                0x00000002000036e8       0x30 /home/zbtrs/ospp/rt-thread/bsp/toolchain/riscv64-linux-musleabi_for_x86_64-pc-linux-gnu/bin/../lib/gcc/riscv64-unknown-linux-musl/10.1.0/../../../../riscv64-unknown-linux-musl/lib/libc.a(syscall.o)
 .text.syscall_sigpending
                0x0000000200003718       0x30 /home/zbtrs/ospp/rt-thread/bsp/toolchain/riscv64-linux-musleabi_for_x86_64-pc-linux-gnu/bin/../lib/gcc/riscv64-unknown-linux-musl/10.1.0/../../../../riscv64-unknown-linux-musl/lib/libc.a(syscall.o)
 .text.syscall_sethostname
                0x0000000200003748       0x30 /home/zbtrs/ospp/rt-thread/bsp/toolchain/riscv64-linux-musleabi_for_x86_64-pc-linux-gnu/bin/../lib/gcc/riscv64-unknown-linux-musl/10.1.0/../../../../riscv64-unknown-linux-musl/lib/libc.a(syscall.o)
 .text.syscall_getrusage
                0x0000000200003778       0x30 /home/zbtrs/ospp/rt-thread/bsp/toolchain/riscv64-linux-musleabi_for_x86_64-pc-linux-gnu/bin/../lib/gcc/riscv64-unknown-linux-musl/10.1.0/../../../../riscv64-unknown-linux-musl/lib/libc.a(syscall.o)
 .text.syscall_gettimeofday
                0x00000002000037a8       0x30 /home/zbtrs/ospp/rt-thread/bsp/toolchain/riscv64-linux-musleabi_for_x86_64-pc-linux-gnu/bin/../lib/gcc/riscv64-unknown-linux-musl/10.1.0/../../../../riscv64-unknown-linux-musl/lib/libc.a(syscall.o)
 .text.syscall_settimeofday
                0x00000002000037d8       0x30 /home/zbtrs/ospp/rt-thread/bsp/toolchain/riscv64-linux-musleabi_for_x86_64-pc-linux-gnu/bin/../lib/gcc/riscv64-unknown-linux-musl/10.1.0/../../../../riscv64-unknown-linux-musl/lib/libc.a(syscall.o)
 .text.syscall_getgroups
                0x0000000200003808       0x30 /home/zbtrs/ospp/rt-thread/bsp/toolchain/riscv64-linux-musleabi_for_x86_64-pc-linux-gnu/bin/../lib/gcc/riscv64-unknown-linux-musl/10.1.0/../../../../riscv64-unknown-linux-musl/lib/libc.a(syscall.o)
 .text.syscall_setgroups
                0x0000000200003838       0x30 /home/zbtrs/ospp/rt-thread/bsp/toolchain/riscv64-linux-musleabi_for_x86_64-pc-linux-gnu/bin/../lib/gcc/riscv64-unknown-linux-musl/10.1.0/../../../../riscv64-unknown-linux-musl/lib/libc.a(syscall.o)
 .text.syscall_uselib
                0x0000000200003868       0x30 /home/zbtrs/ospp/rt-thread/bsp/toolchain/riscv64-linux-musleabi_for_x86_64-pc-linux-gnu/bin/../lib/gcc/riscv64-unknown-linux-musl/10.1.0/../../../../riscv64-unknown-linux-musl/lib/libc.a(syscall.o)
 .text.syscall_swapon
                0x0000000200003898       0x30 /home/zbtrs/ospp/rt-thread/bsp/toolchain/riscv64-linux-musleabi_for_x86_64-pc-linux-gnu/bin/../lib/gcc/riscv64-unknown-linux-musl/10.1.0/../../../../riscv64-unknown-linux-musl/lib/libc.a(syscall.o)
 .text.syscall_truncate
                0x00000002000038c8       0x30 /home/zbtrs/ospp/rt-thread/bsp/toolchain/riscv64-linux-musleabi_for_x86_64-pc-linux-gnu/bin/../lib/gcc/riscv64-unknown-linux-musl/10.1.0/../../../../riscv64-unknown-linux-musl/lib/libc.a(syscall.o)
 .text.syscall_ftruncate
                0x00000002000038f8       0x30 /home/zbtrs/ospp/rt-thread/bsp/toolchain/riscv64-linux-musleabi_for_x86_64-pc-linux-gnu/bin/../lib/gcc/riscv64-unknown-linux-musl/10.1.0/../../../../riscv64-unknown-linux-musl/lib/libc.a(syscall.o)
 .text.syscall_fchmod
                0x0000000200003928       0x30 /home/zbtrs/ospp/rt-thread/bsp/toolchain/riscv64-linux-musleabi_for_x86_64-pc-linux-gnu/bin/../lib/gcc/riscv64-unknown-linux-musl/10.1.0/../../../../riscv64-unknown-linux-musl/lib/libc.a(syscall.o)
 .text.syscall_fchown
                0x0000000200003958       0x30 /home/zbtrs/ospp/rt-thread/bsp/toolchain/riscv64-linux-musleabi_for_x86_64-pc-linux-gnu/bin/../lib/gcc/riscv64-unknown-linux-musl/10.1.0/../../../../riscv64-unknown-linux-musl/lib/libc.a(syscall.o)
 .text.syscall_getpriority
                0x0000000200003988       0x30 /home/zbtrs/ospp/rt-thread/bsp/toolchain/riscv64-linux-musleabi_for_x86_64-pc-linux-gnu/bin/../lib/gcc/riscv64-unknown-linux-musl/10.1.0/../../../../riscv64-unknown-linux-musl/lib/libc.a(syscall.o)
 .text.syscall_setpriority
                0x00000002000039b8       0x30 /home/zbtrs/ospp/rt-thread/bsp/toolchain/riscv64-linux-musleabi_for_x86_64-pc-linux-gnu/bin/../lib/gcc/riscv64-unknown-linux-musl/10.1.0/../../../../riscv64-unknown-linux-musl/lib/libc.a(syscall.o)
 .text.syscall_syslog
                0x00000002000039e8       0x30 /home/zbtrs/ospp/rt-thread/bsp/toolchain/riscv64-linux-musleabi_for_x86_64-pc-linux-gnu/bin/../lib/gcc/riscv64-unknown-linux-musl/10.1.0/../../../../riscv64-unknown-linux-musl/lib/libc.a(syscall.o)
 .text.syscall_setitimer
                0x0000000200003a18       0x30 /home/zbtrs/ospp/rt-thread/bsp/toolchain/riscv64-linux-musleabi_for_x86_64-pc-linux-gnu/bin/../lib/gcc/riscv64-unknown-linux-musl/10.1.0/../../../../riscv64-unknown-linux-musl/lib/libc.a(syscall.o)
 .text.syscall_getitimer
                0x0000000200003a48       0x30 /home/zbtrs/ospp/rt-thread/bsp/toolchain/riscv64-linux-musleabi_for_x86_64-pc-linux-gnu/bin/../lib/gcc/riscv64-unknown-linux-musl/10.1.0/../../../../riscv64-unknown-linux-musl/lib/libc.a(syscall.o)
 .text.syscall_fstat
                0x0000000200003a78       0x30 /home/zbtrs/ospp/rt-thread/bsp/toolchain/riscv64-linux-musleabi_for_x86_64-pc-linux-gnu/bin/../lib/gcc/riscv64-unknown-linux-musl/10.1.0/../../../../riscv64-unknown-linux-musl/lib/libc.a(syscall.o)
 .text.syscall_vhangup
                0x0000000200003aa8       0x30 /home/zbtrs/ospp/rt-thread/bsp/toolchain/riscv64-linux-musleabi_for_x86_64-pc-linux-gnu/bin/../lib/gcc/riscv64-unknown-linux-musl/10.1.0/../../../../riscv64-unknown-linux-musl/lib/libc.a(syscall.o)
 .text.syscall_wait4
                0x0000000200003ad8       0x30 /home/zbtrs/ospp/rt-thread/bsp/toolchain/riscv64-linux-musleabi_for_x86_64-pc-linux-gnu/bin/../lib/gcc/riscv64-unknown-linux-musl/10.1.0/../../../../riscv64-unknown-linux-musl/lib/libc.a(syscall.o)
 .text.syscall_swapoff
                0x0000000200003b08       0x30 /home/zbtrs/ospp/rt-thread/bsp/toolchain/riscv64-linux-musleabi_for_x86_64-pc-linux-gnu/bin/../lib/gcc/riscv64-unknown-linux-musl/10.1.0/../../../../riscv64-unknown-linux-musl/lib/libc.a(syscall.o)
 .text.syscall_sigreturn
                0x0000000200003b38       0x30 /home/zbtrs/ospp/rt-thread/bsp/toolchain/riscv64-linux-musleabi_for_x86_64-pc-linux-gnu/bin/../lib/gcc/riscv64-unknown-linux-musl/10.1.0/../../../../riscv64-unknown-linux-musl/lib/libc.a(syscall.o)
 .text.syscall_clone
                0x0000000200003b68       0x30 /home/zbtrs/ospp/rt-thread/bsp/toolchain/riscv64-linux-musleabi_for_x86_64-pc-linux-gnu/bin/../lib/gcc/riscv64-unknown-linux-musl/10.1.0/../../../../riscv64-unknown-linux-musl/lib/libc.a(syscall.o)
 .text.syscall_setdomainname
                0x0000000200003b98       0x30 /home/zbtrs/ospp/rt-thread/bsp/toolchain/riscv64-linux-musleabi_for_x86_64-pc-linux-gnu/bin/../lib/gcc/riscv64-unknown-linux-musl/10.1.0/../../../../riscv64-unknown-linux-musl/lib/libc.a(syscall.o)
 .text.syscall_adjtimex
                0x0000000200003bc8       0x30 /home/zbtrs/ospp/rt-thread/bsp/toolchain/riscv64-linux-musleabi_for_x86_64-pc-linux-gnu/bin/../lib/gcc/riscv64-unknown-linux-musl/10.1.0/../../../../riscv64-unknown-linux-musl/lib/libc.a(syscall.o)
 .text.syscall_mprotect
                0x0000000200003bf8       0x30 /home/zbtrs/ospp/rt-thread/bsp/toolchain/riscv64-linux-musleabi_for_x86_64-pc-linux-gnu/bin/../lib/gcc/riscv64-unknown-linux-musl/10.1.0/../../../../riscv64-unknown-linux-musl/lib/libc.a(syscall.o)
 .text.syscall_init_module
                0x0000000200003c28       0x30 /home/zbtrs/ospp/rt-thread/bsp/toolchain/riscv64-linux-musleabi_for_x86_64-pc-linux-gnu/bin/../lib/gcc/riscv64-unknown-linux-musl/10.1.0/../../../../riscv64-unknown-linux-musl/lib/libc.a(syscall.o)
 .text.syscall_delete_module
                0x0000000200003c58       0x30 /home/zbtrs/ospp/rt-thread/bsp/toolchain/riscv64-linux-musleabi_for_x86_64-pc-linux-gnu/bin/../lib/gcc/riscv64-unknown-linux-musl/10.1.0/../../../../riscv64-unknown-linux-musl/lib/libc.a(syscall.o)
 .text.syscall_quotactl
                0x0000000200003c88       0x30 /home/zbtrs/ospp/rt-thread/bsp/toolchain/riscv64-linux-musleabi_for_x86_64-pc-linux-gnu/bin/../lib/gcc/riscv64-unknown-linux-musl/10.1.0/../../../../riscv64-unknown-linux-musl/lib/libc.a(syscall.o)
 .text.syscall_getpgid
                0x0000000200003cb8       0x30 /home/zbtrs/ospp/rt-thread/bsp/toolchain/riscv64-linux-musleabi_for_x86_64-pc-linux-gnu/bin/../lib/gcc/riscv64-unknown-linux-musl/10.1.0/../../../../riscv64-unknown-linux-musl/lib/libc.a(syscall.o)
 .text.syscall_fchdir
                0x0000000200003ce8       0x30 /home/zbtrs/ospp/rt-thread/bsp/toolchain/riscv64-linux-musleabi_for_x86_64-pc-linux-gnu/bin/../lib/gcc/riscv64-unknown-linux-musl/10.1.0/../../../../riscv64-unknown-linux-musl/lib/libc.a(syscall.o)
 .text.syscall_bdflush
                0x0000000200003d18       0x30 /home/zbtrs/ospp/rt-thread/bsp/toolchain/riscv64-linux-musleabi_for_x86_64-pc-linux-gnu/bin/../lib/gcc/riscv64-unknown-linux-musl/10.1.0/../../../../riscv64-unknown-linux-musl/lib/libc.a(syscall.o)
 .text.syscall_sysfs
                0x0000000200003d48       0x30 /home/zbtrs/ospp/rt-thread/bsp/toolchain/riscv64-linux-musleabi_for_x86_64-pc-linux-gnu/bin/../lib/gcc/riscv64-unknown-linux-musl/10.1.0/../../../../riscv64-unknown-linux-musl/lib/libc.a(syscall.o)
 .text.syscall_personality
                0x0000000200003d78       0x30 /home/zbtrs/ospp/rt-thread/bsp/toolchain/riscv64-linux-musleabi_for_x86_64-pc-linux-gnu/bin/../lib/gcc/riscv64-unknown-linux-musl/10.1.0/../../../../riscv64-unknown-linux-musl/lib/libc.a(syscall.o)
 .text.syscall_setfsuid
                0x0000000200003da8       0x30 /home/zbtrs/ospp/rt-thread/bsp/toolchain/riscv64-linux-musleabi_for_x86_64-pc-linux-gnu/bin/../lib/gcc/riscv64-unknown-linux-musl/10.1.0/../../../../riscv64-unknown-linux-musl/lib/libc.a(syscall.o)
 .text.syscall_setfsgid
                0x0000000200003dd8       0x30 /home/zbtrs/ospp/rt-thread/bsp/toolchain/riscv64-linux-musleabi_for_x86_64-pc-linux-gnu/bin/../lib/gcc/riscv64-unknown-linux-musl/10.1.0/../../../../riscv64-unknown-linux-musl/lib/libc.a(syscall.o)
 .text.syscall_flock
                0x0000000200003e08       0x30 /home/zbtrs/ospp/rt-thread/bsp/toolchain/riscv64-linux-musleabi_for_x86_64-pc-linux-gnu/bin/../lib/gcc/riscv64-unknown-linux-musl/10.1.0/../../../../riscv64-unknown-linux-musl/lib/libc.a(syscall.o)
 .text.syscall_msync
                0x0000000200003e38       0x30 /home/zbtrs/ospp/rt-thread/bsp/toolchain/riscv64-linux-musleabi_for_x86_64-pc-linux-gnu/bin/../lib/gcc/riscv64-unknown-linux-musl/10.1.0/../../../../riscv64-unknown-linux-musl/lib/libc.a(syscall.o)
 .text.syscall_getsid
                0x0000000200003e68       0x30 /home/zbtrs/ospp/rt-thread/bsp/toolchain/riscv64-linux-musleabi_for_x86_64-pc-linux-gnu/bin/../lib/gcc/riscv64-unknown-linux-musl/10.1.0/../../../../riscv64-unknown-linux-musl/lib/libc.a(syscall.o)
 .text.syscall_fdatasync
                0x0000000200003e98       0x30 /home/zbtrs/ospp/rt-thread/bsp/toolchain/riscv64-linux-musleabi_for_x86_64-pc-linux-gnu/bin/../lib/gcc/riscv64-unknown-linux-musl/10.1.0/../../../../riscv64-unknown-linux-musl/lib/libc.a(syscall.o)
 .text.syscall__sysctl
                0x0000000200003ec8       0x30 /home/zbtrs/ospp/rt-thread/bsp/toolchain/riscv64-linux-musleabi_for_x86_64-pc-linux-gnu/bin/../lib/gcc/riscv64-unknown-linux-musl/10.1.0/../../../../riscv64-unknown-linux-musl/lib/libc.a(syscall.o)
 .text.syscall_mlock
                0x0000000200003ef8       0x30 /home/zbtrs/ospp/rt-thread/bsp/toolchain/riscv64-linux-musleabi_for_x86_64-pc-linux-gnu/bin/../lib/gcc/riscv64-unknown-linux-musl/10.1.0/../../../../riscv64-unknown-linux-musl/lib/libc.a(syscall.o)
 .text.syscall_munlock
                0x0000000200003f28       0x30 /home/zbtrs/ospp/rt-thread/bsp/toolchain/riscv64-linux-musleabi_for_x86_64-pc-linux-gnu/bin/../lib/gcc/riscv64-unknown-linux-musl/10.1.0/../../../../riscv64-unknown-linux-musl/lib/libc.a(syscall.o)
 .text.syscall_mlockall
                0x0000000200003f58       0x30 /home/zbtrs/ospp/rt-thread/bsp/toolchain/riscv64-linux-musleabi_for_x86_64-pc-linux-gnu/bin/../lib/gcc/riscv64-unknown-linux-musl/10.1.0/../../../../riscv64-unknown-linux-musl/lib/libc.a(syscall.o)
 .text.syscall_setfsgid32
                0x0000000200003f88       0x30 /home/zbtrs/ospp/rt-thread/bsp/toolchain/riscv64-linux-musleabi_for_x86_64-pc-linux-gnu/bin/../lib/gcc/riscv64-unknown-linux-musl/10.1.0/../../../../riscv64-unknown-linux-musl/lib/libc.a(syscall.o)
 .text.syscall_readahead
                0x0000000200003fb8       0x30 /home/zbtrs/ospp/rt-thread/bsp/toolchain/riscv64-linux-musleabi_for_x86_64-pc-linux-gnu/bin/../lib/gcc/riscv64-unknown-linux-musl/10.1.0/../../../../riscv64-unknown-linux-musl/lib/libc.a(syscall.o)
 .text.syscall_pivot_root
                0x0000000200003fe8       0x30 /home/zbtrs/ospp/rt-thread/bsp/toolchain/riscv64-linux-musleabi_for_x86_64-pc-linux-gnu/bin/../lib/gcc/riscv64-unknown-linux-musl/10.1.0/../../../../riscv64-unknown-linux-musl/lib/libc.a(syscall.o)
 .text.syscall_mincore
                0x0000000200004018       0x30 /home/zbtrs/ospp/rt-thread/bsp/toolchain/riscv64-linux-musleabi_for_x86_64-pc-linux-gnu/bin/../lib/gcc/riscv64-unknown-linux-musl/10.1.0/../../../../riscv64-unknown-linux-musl/lib/libc.a(syscall.o)
 .text.syscall_chroot
                0x0000000200004048       0x30 /home/zbtrs/ospp/rt-thread/bsp/toolchain/riscv64-linux-musleabi_for_x86_64-pc-linux-gnu/bin/../lib/gcc/riscv64-unknown-linux-musl/10.1.0/../../../../riscv64-unknown-linux-musl/lib/libc.a(syscall.o)
 .text.syscall_ustat
                0x0000000200004078       0x30 /home/zbtrs/ospp/rt-thread/bsp/toolchain/riscv64-linux-musleabi_for_x86_64-pc-linux-gnu/bin/../lib/gcc/riscv64-unknown-linux-musl/10.1.0/../../../../riscv64-unknown-linux-musl/lib/libc.a(syscall.o)
 .text.syscall_getppid
                0x00000002000040a8       0x30 /home/zbtrs/ospp/rt-thread/bsp/toolchain/riscv64-linux-musleabi_for_x86_64-pc-linux-gnu/bin/../lib/gcc/riscv64-unknown-linux-musl/10.1.0/../../../../riscv64-unknown-linux-musl/lib/libc.a(syscall.o)
 .text.syscall_getpgrp
                0x00000002000040d8       0x30 /home/zbtrs/ospp/rt-thread/bsp/toolchain/riscv64-linux-musleabi_for_x86_64-pc-linux-gnu/bin/../lib/gcc/riscv64-unknown-linux-musl/10.1.0/../../../../riscv64-unknown-linux-musl/lib/libc.a(syscall.o)
 .text.syscall_setgroups32
                0x0000000200004108       0x30 /home/zbtrs/ospp/rt-thread/bsp/toolchain/riscv64-linux-musleabi_for_x86_64-pc-linux-gnu/bin/../lib/gcc/riscv64-unknown-linux-musl/10.1.0/../../../../riscv64-unknown-linux-musl/lib/libc.a(syscall.o)
 .text.syscall_fchown32
                0x0000000200004138       0x30 /home/zbtrs/ospp/rt-thread/bsp/toolchain/riscv64-linux-musleabi_for_x86_64-pc-linux-gnu/bin/../lib/gcc/riscv64-unknown-linux-musl/10.1.0/../../../../riscv64-unknown-linux-musl/lib/libc.a(syscall.o)
 .text.syscall_setresuid32
                0x0000000200004168       0x30 /home/zbtrs/ospp/rt-thread/bsp/toolchain/riscv64-linux-musleabi_for_x86_64-pc-linux-gnu/bin/../lib/gcc/riscv64-unknown-linux-musl/10.1.0/../../../../riscv64-unknown-linux-musl/lib/libc.a(syscall.o)
 .text.syscall_getresuid32
                0x0000000200004198       0x30 /home/zbtrs/ospp/rt-thread/bsp/toolchain/riscv64-linux-musleabi_for_x86_64-pc-linux-gnu/bin/../lib/gcc/riscv64-unknown-linux-musl/10.1.0/../../../../riscv64-unknown-linux-musl/lib/libc.a(syscall.o)
 .text.syscall_setresgid32
                0x00000002000041c8       0x30 /home/zbtrs/ospp/rt-thread/bsp/toolchain/riscv64-linux-musleabi_for_x86_64-pc-linux-gnu/bin/../lib/gcc/riscv64-unknown-linux-musl/10.1.0/../../../../riscv64-unknown-linux-musl/lib/libc.a(syscall.o)
 .text.syscall_getresgid32
                0x00000002000041f8       0x30 /home/zbtrs/ospp/rt-thread/bsp/toolchain/riscv64-linux-musleabi_for_x86_64-pc-linux-gnu/bin/../lib/gcc/riscv64-unknown-linux-musl/10.1.0/../../../../riscv64-unknown-linux-musl/lib/libc.a(syscall.o)
 .text.syscall_chown32
                0x0000000200004228       0x30 /home/zbtrs/ospp/rt-thread/bsp/toolchain/riscv64-linux-musleabi_for_x86_64-pc-linux-gnu/bin/../lib/gcc/riscv64-unknown-linux-musl/10.1.0/../../../../riscv64-unknown-linux-musl/lib/libc.a(syscall.o)
 .text.syscall_setuid32
                0x0000000200004258       0x30 /home/zbtrs/ospp/rt-thread/bsp/toolchain/riscv64-linux-musleabi_for_x86_64-pc-linux-gnu/bin/../lib/gcc/riscv64-unknown-linux-musl/10.1.0/../../../../riscv64-unknown-linux-musl/lib/libc.a(syscall.o)
 .text.syscall_setxattr
                0x0000000200004288       0x30 /home/zbtrs/ospp/rt-thread/bsp/toolchain/riscv64-linux-musleabi_for_x86_64-pc-linux-gnu/bin/../lib/gcc/riscv64-unknown-linux-musl/10.1.0/../../../../riscv64-unknown-linux-musl/lib/libc.a(syscall.o)
 .text.syscall_lsetxattr
                0x00000002000042b8       0x30 /home/zbtrs/ospp/rt-thread/bsp/toolchain/riscv64-linux-musleabi_for_x86_64-pc-linux-gnu/bin/../lib/gcc/riscv64-unknown-linux-musl/10.1.0/../../../../riscv64-unknown-linux-musl/lib/libc.a(syscall.o)
 .text.syscall_fsetxattr
                0x00000002000042e8       0x30 /home/zbtrs/ospp/rt-thread/bsp/toolchain/riscv64-linux-musleabi_for_x86_64-pc-linux-gnu/bin/../lib/gcc/riscv64-unknown-linux-musl/10.1.0/../../../../riscv64-unknown-linux-musl/lib/libc.a(syscall.o)
 .text.syscall_getxattr
                0x0000000200004318       0x30 /home/zbtrs/ospp/rt-thread/bsp/toolchain/riscv64-linux-musleabi_for_x86_64-pc-linux-gnu/bin/../lib/gcc/riscv64-unknown-linux-musl/10.1.0/../../../../riscv64-unknown-linux-musl/lib/libc.a(syscall.o)
 .text.syscall_lgetxattr
                0x0000000200004348       0x30 /home/zbtrs/ospp/rt-thread/bsp/toolchain/riscv64-linux-musleabi_for_x86_64-pc-linux-gnu/bin/../lib/gcc/riscv64-unknown-linux-musl/10.1.0/../../../../riscv64-unknown-linux-musl/lib/libc.a(syscall.o)
 .text.syscall_fgetxattr
                0x0000000200004378       0x30 /home/zbtrs/ospp/rt-thread/bsp/toolchain/riscv64-linux-musleabi_for_x86_64-pc-linux-gnu/bin/../lib/gcc/riscv64-unknown-linux-musl/10.1.0/../../../../riscv64-unknown-linux-musl/lib/libc.a(syscall.o)
 .text.syscall_listxattr
                0x00000002000043a8       0x30 /home/zbtrs/ospp/rt-thread/bsp/toolchain/riscv64-linux-musleabi_for_x86_64-pc-linux-gnu/bin/../lib/gcc/riscv64-unknown-linux-musl/10.1.0/../../../../riscv64-unknown-linux-musl/lib/libc.a(syscall.o)
 .text.syscall_llistxattr
                0x00000002000043d8       0x30 /home/zbtrs/ospp/rt-thread/bsp/toolchain/riscv64-linux-musleabi_for_x86_64-pc-linux-gnu/bin/../lib/gcc/riscv64-unknown-linux-musl/10.1.0/../../../../riscv64-unknown-linux-musl/lib/libc.a(syscall.o)
 .text.syscall_flistxattr
                0x0000000200004408       0x30 /home/zbtrs/ospp/rt-thread/bsp/toolchain/riscv64-linux-musleabi_for_x86_64-pc-linux-gnu/bin/../lib/gcc/riscv64-unknown-linux-musl/10.1.0/../../../../riscv64-unknown-linux-musl/lib/libc.a(syscall.o)
 .text.syscall_removexattr
                0x0000000200004438       0x30 /home/zbtrs/ospp/rt-thread/bsp/toolchain/riscv64-linux-musleabi_for_x86_64-pc-linux-gnu/bin/../lib/gcc/riscv64-unknown-linux-musl/10.1.0/../../../../riscv64-unknown-linux-musl/lib/libc.a(syscall.o)
 .text.syscall_lremovexattr
                0x0000000200004468       0x30 /home/zbtrs/ospp/rt-thread/bsp/toolchain/riscv64-linux-musleabi_for_x86_64-pc-linux-gnu/bin/../lib/gcc/riscv64-unknown-linux-musl/10.1.0/../../../../riscv64-unknown-linux-musl/lib/libc.a(syscall.o)
 .text.syscall_fremovexattr
                0x0000000200004498       0x30 /home/zbtrs/ospp/rt-thread/bsp/toolchain/riscv64-linux-musleabi_for_x86_64-pc-linux-gnu/bin/../lib/gcc/riscv64-unknown-linux-musl/10.1.0/../../../../riscv64-unknown-linux-musl/lib/libc.a(syscall.o)
 .text.syscall_sendfile64
                0x00000002000044c8       0x30 /home/zbtrs/ospp/rt-thread/bsp/toolchain/riscv64-linux-musleabi_for_x86_64-pc-linux-gnu/bin/../lib/gcc/riscv64-unknown-linux-musl/10.1.0/../../../../riscv64-unknown-linux-musl/lib/libc.a(syscall.o)
 .text.syscall_io_setup
                0x00000002000044f8       0x30 /home/zbtrs/ospp/rt-thread/bsp/toolchain/riscv64-linux-musleabi_for_x86_64-pc-linux-gnu/bin/../lib/gcc/riscv64-unknown-linux-musl/10.1.0/../../../../riscv64-unknown-linux-musl/lib/libc.a(syscall.o)
 .text.syscall_io_destroy
                0x0000000200004528       0x30 /home/zbtrs/ospp/rt-thread/bsp/toolchain/riscv64-linux-musleabi_for_x86_64-pc-linux-gnu/bin/../lib/gcc/riscv64-unknown-linux-musl/10.1.0/../../../../riscv64-unknown-linux-musl/lib/libc.a(syscall.o)
 .text.syscall_io_getevents
                0x0000000200004558       0x30 /home/zbtrs/ospp/rt-thread/bsp/toolchain/riscv64-linux-musleabi_for_x86_64-pc-linux-gnu/bin/../lib/gcc/riscv64-unknown-linux-musl/10.1.0/../../../../riscv64-unknown-linux-musl/lib/libc.a(syscall.o)
 .text.syscall_setpgid
                0x0000000200004588       0x30 /home/zbtrs/ospp/rt-thread/bsp/toolchain/riscv64-linux-musleabi_for_x86_64-pc-linux-gnu/bin/../lib/gcc/riscv64-unknown-linux-musl/10.1.0/../../../../riscv64-unknown-linux-musl/lib/libc.a(syscall.o)
 .text.syscall_umask
                0x00000002000045b8       0x30 /home/zbtrs/ospp/rt-thread/bsp/toolchain/riscv64-linux-musleabi_for_x86_64-pc-linux-gnu/bin/../lib/gcc/riscv64-unknown-linux-musl/10.1.0/../../../../riscv64-unknown-linux-musl/lib/libc.a(syscall.o)
 .text.syscall_truncate64
                0x00000002000045e8       0x30 /home/zbtrs/ospp/rt-thread/bsp/toolchain/riscv64-linux-musleabi_for_x86_64-pc-linux-gnu/bin/../lib/gcc/riscv64-unknown-linux-musl/10.1.0/../../../../riscv64-unknown-linux-musl/lib/libc.a(syscall.o)
 .text.syscall_ftruncate64
                0x0000000200004618       0x30 /home/zbtrs/ospp/rt-thread/bsp/toolchain/riscv64-linux-musleabi_for_x86_64-pc-linux-gnu/bin/../lib/gcc/riscv64-unknown-linux-musl/10.1.0/../../../../riscv64-unknown-linux-musl/lib/libc.a(syscall.o)
 .text.syscall_capget
                0x0000000200004648       0x30 /home/zbtrs/ospp/rt-thread/bsp/toolchain/riscv64-linux-musleabi_for_x86_64-pc-linux-gnu/bin/../lib/gcc/riscv64-unknown-linux-musl/10.1.0/../../../../riscv64-unknown-linux-musl/lib/libc.a(syscall.o)
 .text.syscall_capset
                0x0000000200004678       0x30 /home/zbtrs/ospp/rt-thread/bsp/toolchain/riscv64-linux-musleabi_for_x86_64-pc-linux-gnu/bin/../lib/gcc/riscv64-unknown-linux-musl/10.1.0/../../../../riscv64-unknown-linux-musl/lib/libc.a(syscall.o)
 .text.syscall_sigaltstack
                0x00000002000046a8       0x30 /home/zbtrs/ospp/rt-thread/bsp/toolchain/riscv64-linux-musleabi_for_x86_64-pc-linux-gnu/bin/../lib/gcc/riscv64-unknown-linux-musl/10.1.0/../../../../riscv64-unknown-linux-musl/lib/libc.a(syscall.o)
 .text.syscall_sendfile
                0x00000002000046d8       0x30 /home/zbtrs/ospp/rt-thread/bsp/toolchain/riscv64-linux-musleabi_for_x86_64-pc-linux-gnu/bin/../lib/gcc/riscv64-unknown-linux-musl/10.1.0/../../../../riscv64-unknown-linux-musl/lib/libc.a(syscall.o)
 .text.syscall_lchown32
                0x0000000200004708       0x30 /home/zbtrs/ospp/rt-thread/bsp/toolchain/riscv64-linux-musleabi_for_x86_64-pc-linux-gnu/bin/../lib/gcc/riscv64-unknown-linux-musl/10.1.0/../../../../riscv64-unknown-linux-musl/lib/libc.a(syscall.o)
 .text.syscall_getuid32
                0x0000000200004738       0x30 /home/zbtrs/ospp/rt-thread/bsp/toolchain/riscv64-linux-musleabi_for_x86_64-pc-linux-gnu/bin/../lib/gcc/riscv64-unknown-linux-musl/10.1.0/../../../../riscv64-unknown-linux-musl/lib/libc.a(syscall.o)
 .text.syscall_getgid32
                0x0000000200004768       0x30 /home/zbtrs/ospp/rt-thread/bsp/toolchain/riscv64-linux-musleabi_for_x86_64-pc-linux-gnu/bin/../lib/gcc/riscv64-unknown-linux-musl/10.1.0/../../../../riscv64-unknown-linux-musl/lib/libc.a(syscall.o)
 .text.syscall_geteuid32
                0x0000000200004798       0x30 /home/zbtrs/ospp/rt-thread/bsp/toolchain/riscv64-linux-musleabi_for_x86_64-pc-linux-gnu/bin/../lib/gcc/riscv64-unknown-linux-musl/10.1.0/../../../../riscv64-unknown-linux-musl/lib/libc.a(syscall.o)
 .text.syscall_getegid32
                0x00000002000047c8       0x30 /home/zbtrs/ospp/rt-thread/bsp/toolchain/riscv64-linux-musleabi_for_x86_64-pc-linux-gnu/bin/../lib/gcc/riscv64-unknown-linux-musl/10.1.0/../../../../riscv64-unknown-linux-musl/lib/libc.a(syscall.o)
 .text.syscall_setreuid32
                0x00000002000047f8       0x30 /home/zbtrs/ospp/rt-thread/bsp/toolchain/riscv64-linux-musleabi_for_x86_64-pc-linux-gnu/bin/../lib/gcc/riscv64-unknown-linux-musl/10.1.0/../../../../riscv64-unknown-linux-musl/lib/libc.a(syscall.o)
 .text.syscall_setregid32
                0x0000000200004828       0x30 /home/zbtrs/ospp/rt-thread/bsp/toolchain/riscv64-linux-musleabi_for_x86_64-pc-linux-gnu/bin/../lib/gcc/riscv64-unknown-linux-musl/10.1.0/../../../../riscv64-unknown-linux-musl/lib/libc.a(syscall.o)
 .text.syscall_getgroups32
                0x0000000200004858       0x30 /home/zbtrs/ospp/rt-thread/bsp/toolchain/riscv64-linux-musleabi_for_x86_64-pc-linux-gnu/bin/../lib/gcc/riscv64-unknown-linux-musl/10.1.0/../../../../riscv64-unknown-linux-musl/lib/libc.a(syscall.o)
 .text.syscall_munlockall
                0x0000000200004888       0x30 /home/zbtrs/ospp/rt-thread/bsp/toolchain/riscv64-linux-musleabi_for_x86_64-pc-linux-gnu/bin/../lib/gcc/riscv64-unknown-linux-musl/10.1.0/../../../../riscv64-unknown-linux-musl/lib/libc.a(syscall.o)
 .text.syscall_sched_rr_get_interval
                0x00000002000048b8       0x30 /home/zbtrs/ospp/rt-thread/bsp/toolchain/riscv64-linux-musleabi_for_x86_64-pc-linux-gnu/bin/../lib/gcc/riscv64-unknown-linux-musl/10.1.0/../../../../riscv64-unknown-linux-musl/lib/libc.a(syscall.o)
 .text.syscall_setresuid
                0x00000002000048e8       0x30 /home/zbtrs/ospp/rt-thread/bsp/toolchain/riscv64-linux-musleabi_for_x86_64-pc-linux-gnu/bin/../lib/gcc/riscv64-unknown-linux-musl/10.1.0/../../../../riscv64-unknown-linux-musl/lib/libc.a(syscall.o)
 .text.syscall_getresuid
                0x0000000200004918       0x30 /home/zbtrs/ospp/rt-thread/bsp/toolchain/riscv64-linux-musleabi_for_x86_64-pc-linux-gnu/bin/../lib/gcc/riscv64-unknown-linux-musl/10.1.0/../../../../riscv64-unknown-linux-musl/lib/libc.a(syscall.o)
 .text.syscall_nfsservctl
                0x0000000200004948       0x30 /home/zbtrs/ospp/rt-thread/bsp/toolchain/riscv64-linux-musleabi_for_x86_64-pc-linux-gnu/bin/../lib/gcc/riscv64-unknown-linux-musl/10.1.0/../../../../riscv64-unknown-linux-musl/lib/libc.a(syscall.o)
 .text.syscall_setresgid
                0x0000000200004978       0x30 /home/zbtrs/ospp/rt-thread/bsp/toolchain/riscv64-linux-musleabi_for_x86_64-pc-linux-gnu/bin/../lib/gcc/riscv64-unknown-linux-musl/10.1.0/../../../../riscv64-unknown-linux-musl/lib/libc.a(syscall.o)
 .text.syscall_getresgid
                0x00000002000049a8       0x30 /home/zbtrs/ospp/rt-thread/bsp/toolchain/riscv64-linux-musleabi_for_x86_64-pc-linux-gnu/bin/../lib/gcc/riscv64-unknown-linux-musl/10.1.0/../../../../riscv64-unknown-linux-musl/lib/libc.a(syscall.o)
 .text.syscall_prctl
                0x00000002000049d8       0x30 /home/zbtrs/ospp/rt-thread/bsp/toolchain/riscv64-linux-musleabi_for_x86_64-pc-linux-gnu/bin/../lib/gcc/riscv64-unknown-linux-musl/10.1.0/../../../../riscv64-unknown-linux-musl/lib/libc.a(syscall.o)
 .text.syscall_rt_sigreturn
                0x0000000200004a08       0x30 /home/zbtrs/ospp/rt-thread/bsp/toolchain/riscv64-linux-musleabi_for_x86_64-pc-linux-gnu/bin/../lib/gcc/riscv64-unknown-linux-musl/10.1.0/../../../../riscv64-unknown-linux-musl/lib/libc.a(syscall.o)
 .text.syscall_rt_sigpending
                0x0000000200004a38       0x30 /home/zbtrs/ospp/rt-thread/bsp/toolchain/riscv64-linux-musleabi_for_x86_64-pc-linux-gnu/bin/../lib/gcc/riscv64-unknown-linux-musl/10.1.0/../../../../riscv64-unknown-linux-musl/lib/libc.a(syscall.o)
 .text.syscall_rt_sigtimedwait
                0x0000000200004a68       0x30 /home/zbtrs/ospp/rt-thread/bsp/toolchain/riscv64-linux-musleabi_for_x86_64-pc-linux-gnu/bin/../lib/gcc/riscv64-unknown-linux-musl/10.1.0/../../../../riscv64-unknown-linux-musl/lib/libc.a(syscall.o)
 .text.syscall_rt_sigqueueinfo
                0x0000000200004a98       0x30 /home/zbtrs/ospp/rt-thread/bsp/toolchain/riscv64-linux-musleabi_for_x86_64-pc-linux-gnu/bin/../lib/gcc/riscv64-unknown-linux-musl/10.1.0/../../../../riscv64-unknown-linux-musl/lib/libc.a(syscall.o)
 .text.syscall_rt_sigsuspend
                0x0000000200004ac8       0x30 /home/zbtrs/ospp/rt-thread/bsp/toolchain/riscv64-linux-musleabi_for_x86_64-pc-linux-gnu/bin/../lib/gcc/riscv64-unknown-linux-musl/10.1.0/../../../../riscv64-unknown-linux-musl/lib/libc.a(syscall.o)
 .text.syscall_pread64
                0x0000000200004af8       0x30 /home/zbtrs/ospp/rt-thread/bsp/toolchain/riscv64-linux-musleabi_for_x86_64-pc-linux-gnu/bin/../lib/gcc/riscv64-unknown-linux-musl/10.1.0/../../../../riscv64-unknown-linux-musl/lib/libc.a(syscall.o)
 .text.syscall_pwrite64
                0x0000000200004b28       0x30 /home/zbtrs/ospp/rt-thread/bsp/toolchain/riscv64-linux-musleabi_for_x86_64-pc-linux-gnu/bin/../lib/gcc/riscv64-unknown-linux-musl/10.1.0/../../../../riscv64-unknown-linux-musl/lib/libc.a(syscall.o)
 .text.syscall_chown
                0x0000000200004b58       0x30 /home/zbtrs/ospp/rt-thread/bsp/toolchain/riscv64-linux-musleabi_for_x86_64-pc-linux-gnu/bin/../lib/gcc/riscv64-unknown-linux-musl/10.1.0/../../../../riscv64-unknown-linux-musl/lib/libc.a(syscall.o)
 .text.syscall_setgid32
                0x0000000200004b88       0x30 /home/zbtrs/ospp/rt-thread/bsp/toolchain/riscv64-linux-musleabi_for_x86_64-pc-linux-gnu/bin/../lib/gcc/riscv64-unknown-linux-musl/10.1.0/../../../../riscv64-unknown-linux-musl/lib/libc.a(syscall.o)
 .text.syscall_setfsuid32
                0x0000000200004bb8       0x30 /home/zbtrs/ospp/rt-thread/bsp/toolchain/riscv64-linux-musleabi_for_x86_64-pc-linux-gnu/bin/../lib/gcc/riscv64-unknown-linux-musl/10.1.0/../../../../riscv64-unknown-linux-musl/lib/libc.a(syscall.o)
 .text.syscall_creat
                0x0000000200004be8       0x30 /home/zbtrs/ospp/rt-thread/bsp/toolchain/riscv64-linux-musleabi_for_x86_64-pc-linux-gnu/bin/../lib/gcc/riscv64-unknown-linux-musl/10.1.0/../../../../riscv64-unknown-linux-musl/lib/libc.a(syscall.o)
 .text.syscall_mknod
                0x0000000200004c18       0x30 /home/zbtrs/ospp/rt-thread/bsp/toolchain/riscv64-linux-musleabi_for_x86_64-pc-linux-gnu/bin/../lib/gcc/riscv64-unknown-linux-musl/10.1.0/../../../../riscv64-unknown-linux-musl/lib/libc.a(syscall.o)
 .text.syscall_setuid
                0x0000000200004c48       0x30 /home/zbtrs/ospp/rt-thread/bsp/toolchain/riscv64-linux-musleabi_for_x86_64-pc-linux-gnu/bin/../lib/gcc/riscv64-unknown-linux-musl/10.1.0/../../../../riscv64-unknown-linux-musl/lib/libc.a(syscall.o)
 .text.syscall_getuid
                0x0000000200004c78       0x30 /home/zbtrs/ospp/rt-thread/bsp/toolchain/riscv64-linux-musleabi_for_x86_64-pc-linux-gnu/bin/../lib/gcc/riscv64-unknown-linux-musl/10.1.0/../../../../riscv64-unknown-linux-musl/lib/libc.a(syscall.o)
 .text.syscall_ptrace
                0x0000000200004ca8       0x30 /home/zbtrs/ospp/rt-thread/bsp/toolchain/riscv64-linux-musleabi_for_x86_64-pc-linux-gnu/bin/../lib/gcc/riscv64-unknown-linux-musl/10.1.0/../../../../riscv64-unknown-linux-musl/lib/libc.a(syscall.o)
 .text.syscall_pause
                0x0000000200004cd8       0x30 /home/zbtrs/ospp/rt-thread/bsp/toolchain/riscv64-linux-musleabi_for_x86_64-pc-linux-gnu/bin/../lib/gcc/riscv64-unknown-linux-musl/10.1.0/../../../../riscv64-unknown-linux-musl/lib/libc.a(syscall.o)
 .text.syscall_nice
                0x0000000200004d08       0x30 /home/zbtrs/ospp/rt-thread/bsp/toolchain/riscv64-linux-musleabi_for_x86_64-pc-linux-gnu/bin/../lib/gcc/riscv64-unknown-linux-musl/10.1.0/../../../../riscv64-unknown-linux-musl/lib/libc.a(syscall.o)
 .text.syscall_sync
                0x0000000200004d38       0x30 /home/zbtrs/ospp/rt-thread/bsp/toolchain/riscv64-linux-musleabi_for_x86_64-pc-linux-gnu/bin/../lib/gcc/riscv64-unknown-linux-musl/10.1.0/../../../../riscv64-unknown-linux-musl/lib/libc.a(syscall.o)
 .text.syscall_times
                0x0000000200004d68       0x30 /home/zbtrs/ospp/rt-thread/bsp/toolchain/riscv64-linux-musleabi_for_x86_64-pc-linux-gnu/bin/../lib/gcc/riscv64-unknown-linux-musl/10.1.0/../../../../riscv64-unknown-linux-musl/lib/libc.a(syscall.o)
 .text.syscall_setgid
                0x0000000200004d98       0x30 /home/zbtrs/ospp/rt-thread/bsp/toolchain/riscv64-linux-musleabi_for_x86_64-pc-linux-gnu/bin/../lib/gcc/riscv64-unknown-linux-musl/10.1.0/../../../../riscv64-unknown-linux-musl/lib/libc.a(syscall.o)
 .text.syscall_getgid
                0x0000000200004dc8       0x30 /home/zbtrs/ospp/rt-thread/bsp/toolchain/riscv64-linux-musleabi_for_x86_64-pc-linux-gnu/bin/../lib/gcc/riscv64-unknown-linux-musl/10.1.0/../../../../riscv64-unknown-linux-musl/lib/libc.a(syscall.o)
 .text.syscall_geteuid
                0x0000000200004df8       0x30 /home/zbtrs/ospp/rt-thread/bsp/toolchain/riscv64-linux-musleabi_for_x86_64-pc-linux-gnu/bin/../lib/gcc/riscv64-unknown-linux-musl/10.1.0/../../../../riscv64-unknown-linux-musl/lib/libc.a(syscall.o)
 .text.syscall_getegid
                0x0000000200004e28       0x30 /home/zbtrs/ospp/rt-thread/bsp/toolchain/riscv64-linux-musleabi_for_x86_64-pc-linux-gnu/bin/../lib/gcc/riscv64-unknown-linux-musl/10.1.0/../../../../riscv64-unknown-linux-musl/lib/libc.a(syscall.o)
 .text.syscall_acct
                0x0000000200004e58       0x30 /home/zbtrs/ospp/rt-thread/bsp/toolchain/riscv64-linux-musleabi_for_x86_64-pc-linux-gnu/bin/../lib/gcc/riscv64-unknown-linux-musl/10.1.0/../../../../riscv64-unknown-linux-musl/lib/libc.a(syscall.o)
 .text.syscall_memfd_create
                0x0000000200004e88       0x30 /home/zbtrs/ospp/rt-thread/bsp/toolchain/riscv64-linux-musleabi_for_x86_64-pc-linux-gnu/bin/../lib/gcc/riscv64-unknown-linux-musl/10.1.0/../../../../riscv64-unknown-linux-musl/lib/libc.a(syscall.o)
 .text.syscall_bpf
                0x0000000200004eb8       0x30 /home/zbtrs/ospp/rt-thread/bsp/toolchain/riscv64-linux-musleabi_for_x86_64-pc-linux-gnu/bin/../lib/gcc/riscv64-unknown-linux-musl/10.1.0/../../../../riscv64-unknown-linux-musl/lib/libc.a(syscall.o)
 .text.syscall_execveat
                0x0000000200004ee8       0x30 /home/zbtrs/ospp/rt-thread/bsp/toolchain/riscv64-linux-musleabi_for_x86_64-pc-linux-gnu/bin/../lib/gcc/riscv64-unknown-linux-musl/10.1.0/../../../../riscv64-unknown-linux-musl/lib/libc.a(syscall.o)
 .text.syscall_userfaultfd
                0x0000000200004f18       0x30 /home/zbtrs/ospp/rt-thread/bsp/toolchain/riscv64-linux-musleabi_for_x86_64-pc-linux-gnu/bin/../lib/gcc/riscv64-unknown-linux-musl/10.1.0/../../../../riscv64-unknown-linux-musl/lib/libc.a(syscall.o)
 .text.syscall_membarrier
                0x0000000200004f48       0x30 /home/zbtrs/ospp/rt-thread/bsp/toolchain/riscv64-linux-musleabi_for_x86_64-pc-linux-gnu/bin/../lib/gcc/riscv64-unknown-linux-musl/10.1.0/../../../../riscv64-unknown-linux-musl/lib/libc.a(syscall.o)
 .text.syscall_mlock2
                0x0000000200004f78       0x30 /home/zbtrs/ospp/rt-thread/bsp/toolchain/riscv64-linux-musleabi_for_x86_64-pc-linux-gnu/bin/../lib/gcc/riscv64-unknown-linux-musl/10.1.0/../../../../riscv64-unknown-linux-musl/lib/libc.a(syscall.o)
 .text.syscall_copy_file_range
                0x0000000200004fa8       0x30 /home/zbtrs/ospp/rt-thread/bsp/toolchain/riscv64-linux-musleabi_for_x86_64-pc-linux-gnu/bin/../lib/gcc/riscv64-unknown-linux-musl/10.1.0/../../../../riscv64-unknown-linux-musl/lib/libc.a(syscall.o)
 .text.syscall_preadv2
                0x0000000200004fd8       0x30 /home/zbtrs/ospp/rt-thread/bsp/toolchain/riscv64-linux-musleabi_for_x86_64-pc-linux-gnu/bin/../lib/gcc/riscv64-unknown-linux-musl/10.1.0/../../../../riscv64-unknown-linux-musl/lib/libc.a(syscall.o)
 .text.syscall_pwritev2
                0x0000000200005008       0x30 /home/zbtrs/ospp/rt-thread/bsp/toolchain/riscv64-linux-musleabi_for_x86_64-pc-linux-gnu/bin/../lib/gcc/riscv64-unknown-linux-musl/10.1.0/../../../../riscv64-unknown-linux-musl/lib/libc.a(syscall.o)
 .text.syscall_pkey_mprotect
                0x0000000200005038       0x30 /home/zbtrs/ospp/rt-thread/bsp/toolchain/riscv64-linux-musleabi_for_x86_64-pc-linux-gnu/bin/../lib/gcc/riscv64-unknown-linux-musl/10.1.0/../../../../riscv64-unknown-linux-musl/lib/libc.a(syscall.o)
 .text.syscall_pkey_alloc
                0x0000000200005068       0x30 /home/zbtrs/ospp/rt-thread/bsp/toolchain/riscv64-linux-musleabi_for_x86_64-pc-linux-gnu/bin/../lib/gcc/riscv64-unknown-linux-musl/10.1.0/../../../../riscv64-unknown-linux-musl/lib/libc.a(syscall.o)
 .text.syscall_pkey_free
                0x0000000200005098       0x30 /home/zbtrs/ospp/rt-thread/bsp/toolchain/riscv64-linux-musleabi_for_x86_64-pc-linux-gnu/bin/../lib/gcc/riscv64-unknown-linux-musl/10.1.0/../../../../riscv64-unknown-linux-musl/lib/libc.a(syscall.o)
 .text.syscall_statx
                0x00000002000050c8       0x30 /home/zbtrs/ospp/rt-thread/bsp/toolchain/riscv64-linux-musleabi_for_x86_64-pc-linux-gnu/bin/../lib/gcc/riscv64-unknown-linux-musl/10.1.0/../../../../riscv64-unknown-linux-musl/lib/libc.a(syscall.o)
 .text.syscall_rseq
                0x00000002000050f8       0x30 /home/zbtrs/ospp/rt-thread/bsp/toolchain/riscv64-linux-musleabi_for_x86_64-pc-linux-gnu/bin/../lib/gcc/riscv64-unknown-linux-musl/10.1.0/../../../../riscv64-unknown-linux-musl/lib/libc.a(syscall.o)
 .text.syscall_io_pgetevents
                0x0000000200005128       0x30 /home/zbtrs/ospp/rt-thread/bsp/toolchain/riscv64-linux-musleabi_for_x86_64-pc-linux-gnu/bin/../lib/gcc/riscv64-unknown-linux-musl/10.1.0/../../../../riscv64-unknown-linux-musl/lib/libc.a(syscall.o)
 .text.syscall_restart_syscall
                0x0000000200005158       0x30 /home/zbtrs/ospp/rt-thread/bsp/toolchain/riscv64-linux-musleabi_for_x86_64-pc-linux-gnu/bin/../lib/gcc/riscv64-unknown-linux-musl/10.1.0/../../../../riscv64-unknown-linux-musl/lib/libc.a(syscall.o)
 .text.syscall_eventfd
                0x0000000200005188       0x30 /home/zbtrs/ospp/rt-thread/bsp/toolchain/riscv64-linux-musleabi_for_x86_64-pc-linux-gnu/bin/../lib/gcc/riscv64-unknown-linux-musl/10.1.0/../../../../riscv64-unknown-linux-musl/lib/libc.a(syscall.o)
 .text.syscall_fallocate
                0x00000002000051b8       0x30 /home/zbtrs/ospp/rt-thread/bsp/toolchain/riscv64-linux-musleabi_for_x86_64-pc-linux-gnu/bin/../lib/gcc/riscv64-unknown-linux-musl/10.1.0/../../../../riscv64-unknown-linux-musl/lib/libc.a(syscall.o)
 .text.syscall_timerfd_settime
                0x00000002000051e8       0x30 /home/zbtrs/ospp/rt-thread/bsp/toolchain/riscv64-linux-musleabi_for_x86_64-pc-linux-gnu/bin/../lib/gcc/riscv64-unknown-linux-musl/10.1.0/../../../../riscv64-unknown-linux-musl/lib/libc.a(syscall.o)
 .text.syscall_timerfd_gettime
                0x0000000200005218       0x30 /home/zbtrs/ospp/rt-thread/bsp/toolchain/riscv64-linux-musleabi_for_x86_64-pc-linux-gnu/bin/../lib/gcc/riscv64-unknown-linux-musl/10.1.0/../../../../riscv64-unknown-linux-musl/lib/libc.a(syscall.o)
 .text.syscall_signalfd4
                0x0000000200005248       0x30 /home/zbtrs/ospp/rt-thread/bsp/toolchain/riscv64-linux-musleabi_for_x86_64-pc-linux-gnu/bin/../lib/gcc/riscv64-unknown-linux-musl/10.1.0/../../../../riscv64-unknown-linux-musl/lib/libc.a(syscall.o)
 .text.syscall_eventfd2
                0x0000000200005278       0x30 /home/zbtrs/ospp/rt-thread/bsp/toolchain/riscv64-linux-musleabi_for_x86_64-pc-linux-gnu/bin/../lib/gcc/riscv64-unknown-linux-musl/10.1.0/../../../../riscv64-unknown-linux-musl/lib/libc.a(syscall.o)
 .text.syscall_epoll_create1
                0x00000002000052a8       0x32 /home/zbtrs/ospp/rt-thread/bsp/toolchain/riscv64-linux-musleabi_for_x86_64-pc-linux-gnu/bin/../lib/gcc/riscv64-unknown-linux-musl/10.1.0/../../../../riscv64-unknown-linux-musl/lib/libc.a(syscall.o)
 .text.syscall_dup3
                0x00000002000052da       0x30 /home/zbtrs/ospp/rt-thread/bsp/toolchain/riscv64-linux-musleabi_for_x86_64-pc-linux-gnu/bin/../lib/gcc/riscv64-unknown-linux-musl/10.1.0/../../../../riscv64-unknown-linux-musl/lib/libc.a(syscall.o)
 .text.syscall_pipe2
                0x000000020000530a       0x30 /home/zbtrs/ospp/rt-thread/bsp/toolchain/riscv64-linux-musleabi_for_x86_64-pc-linux-gnu/bin/../lib/gcc/riscv64-unknown-linux-musl/10.1.0/../../../../riscv64-unknown-linux-musl/lib/libc.a(syscall.o)
 .text.syscall_inotify_init1
                0x000000020000533a       0x30 /home/zbtrs/ospp/rt-thread/bsp/toolchain/riscv64-linux-musleabi_for_x86_64-pc-linux-gnu/bin/../lib/gcc/riscv64-unknown-linux-musl/10.1.0/../../../../riscv64-unknown-linux-musl/lib/libc.a(syscall.o)
 .text.syscall_preadv
                0x000000020000536a       0x30 /home/zbtrs/ospp/rt-thread/bsp/toolchain/riscv64-linux-musleabi_for_x86_64-pc-linux-gnu/bin/../lib/gcc/riscv64-unknown-linux-musl/10.1.0/../../../../riscv64-unknown-linux-musl/lib/libc.a(syscall.o)
 .text.syscall_pwritev
                0x000000020000539a       0x30 /home/zbtrs/ospp/rt-thread/bsp/toolchain/riscv64-linux-musleabi_for_x86_64-pc-linux-gnu/bin/../lib/gcc/riscv64-unknown-linux-musl/10.1.0/../../../../riscv64-unknown-linux-musl/lib/libc.a(syscall.o)
 .text.syscall_rt_tgsigqueueinfo
                0x00000002000053ca       0x30 /home/zbtrs/ospp/rt-thread/bsp/toolchain/riscv64-linux-musleabi_for_x86_64-pc-linux-gnu/bin/../lib/gcc/riscv64-unknown-linux-musl/10.1.0/../../../../riscv64-unknown-linux-musl/lib/libc.a(syscall.o)
 .text.syscall_perf_event_open
                0x00000002000053fa       0x30 /home/zbtrs/ospp/rt-thread/bsp/toolchain/riscv64-linux-musleabi_for_x86_64-pc-linux-gnu/bin/../lib/gcc/riscv64-unknown-linux-musl/10.1.0/../../../../riscv64-unknown-linux-musl/lib/libc.a(syscall.o)
 .text.syscall_recvmmsg
                0x000000020000542a       0x30 /home/zbtrs/ospp/rt-thread/bsp/toolchain/riscv64-linux-musleabi_for_x86_64-pc-linux-gnu/bin/../lib/gcc/riscv64-unknown-linux-musl/10.1.0/../../../../riscv64-unknown-linux-musl/lib/libc.a(syscall.o)
 .text.syscall_accept4
                0x000000020000545a       0x30 /home/zbtrs/ospp/rt-thread/bsp/toolchain/riscv64-linux-musleabi_for_x86_64-pc-linux-gnu/bin/../lib/gcc/riscv64-unknown-linux-musl/10.1.0/../../../../riscv64-unknown-linux-musl/lib/libc.a(syscall.o)
 .text.syscall_fanotify_init
                0x000000020000548a       0x30 /home/zbtrs/ospp/rt-thread/bsp/toolchain/riscv64-linux-musleabi_for_x86_64-pc-linux-gnu/bin/../lib/gcc/riscv64-unknown-linux-musl/10.1.0/../../../../riscv64-unknown-linux-musl/lib/libc.a(syscall.o)
 .text.syscall_fanotify_mark
                0x00000002000054ba       0x30 /home/zbtrs/ospp/rt-thread/bsp/toolchain/riscv64-linux-musleabi_for_x86_64-pc-linux-gnu/bin/../lib/gcc/riscv64-unknown-linux-musl/10.1.0/../../../../riscv64-unknown-linux-musl/lib/libc.a(syscall.o)
 .text.syscall_name_to_handle_at
                0x00000002000054ea       0x30 /home/zbtrs/ospp/rt-thread/bsp/toolchain/riscv64-linux-musleabi_for_x86_64-pc-linux-gnu/bin/../lib/gcc/riscv64-unknown-linux-musl/10.1.0/../../../../riscv64-unknown-linux-musl/lib/libc.a(syscall.o)
 .text.syscall_open_by_handle_at
                0x000000020000551a       0x30 /home/zbtrs/ospp/rt-thread/bsp/toolchain/riscv64-linux-musleabi_for_x86_64-pc-linux-gnu/bin/../lib/gcc/riscv64-unknown-linux-musl/10.1.0/../../../../riscv64-unknown-linux-musl/lib/libc.a(syscall.o)
 .text.syscall_clock_adjtime
                0x000000020000554a       0x30 /home/zbtrs/ospp/rt-thread/bsp/toolchain/riscv64-linux-musleabi_for_x86_64-pc-linux-gnu/bin/../lib/gcc/riscv64-unknown-linux-musl/10.1.0/../../../../riscv64-unknown-linux-musl/lib/libc.a(syscall.o)
 .text.syscall_syncfs
                0x000000020000557a       0x30 /home/zbtrs/ospp/rt-thread/bsp/toolchain/riscv64-linux-musleabi_for_x86_64-pc-linux-gnu/bin/../lib/gcc/riscv64-unknown-linux-musl/10.1.0/../../../../riscv64-unknown-linux-musl/lib/libc.a(syscall.o)
 .text.syscall_sendmmsg
                0x00000002000055aa       0x30 /home/zbtrs/ospp/rt-thread/bsp/toolchain/riscv64-linux-musleabi_for_x86_64-pc-linux-gnu/bin/../lib/gcc/riscv64-unknown-linux-musl/10.1.0/../../../../riscv64-unknown-linux-musl/lib/libc.a(syscall.o)
 .text.syscall_setns
                0x00000002000055da       0x30 /home/zbtrs/ospp/rt-thread/bsp/toolchain/riscv64-linux-musleabi_for_x86_64-pc-linux-gnu/bin/../lib/gcc/riscv64-unknown-linux-musl/10.1.0/../../../../riscv64-unknown-linux-musl/lib/libc.a(syscall.o)
 .text.syscall_process_vm_readv
                0x000000020000560a       0x30 /home/zbtrs/ospp/rt-thread/bsp/toolchain/riscv64-linux-musleabi_for_x86_64-pc-linux-gnu/bin/../lib/gcc/riscv64-unknown-linux-musl/10.1.0/../../../../riscv64-unknown-linux-musl/lib/libc.a(syscall.o)
 .text.syscall_process_vm_writev
                0x000000020000563a       0x30 /home/zbtrs/ospp/rt-thread/bsp/toolchain/riscv64-linux-musleabi_for_x86_64-pc-linux-gnu/bin/../lib/gcc/riscv64-unknown-linux-musl/10.1.0/../../../../riscv64-unknown-linux-musl/lib/libc.a(syscall.o)
 .text.syscall_kcmp
                0x000000020000566a       0x30 /home/zbtrs/ospp/rt-thread/bsp/toolchain/riscv64-linux-musleabi_for_x86_64-pc-linux-gnu/bin/../lib/gcc/riscv64-unknown-linux-musl/10.1.0/../../../../riscv64-unknown-linux-musl/lib/libc.a(syscall.o)
 .text.syscall_finit_module
                0x000000020000569a       0x30 /home/zbtrs/ospp/rt-thread/bsp/toolchain/riscv64-linux-musleabi_for_x86_64-pc-linux-gnu/bin/../lib/gcc/riscv64-unknown-linux-musl/10.1.0/../../../../riscv64-unknown-linux-musl/lib/libc.a(syscall.o)
 .text.syscall_sched_setattr
                0x00000002000056ca       0x30 /home/zbtrs/ospp/rt-thread/bsp/toolchain/riscv64-linux-musleabi_for_x86_64-pc-linux-gnu/bin/../lib/gcc/riscv64-unknown-linux-musl/10.1.0/../../../../riscv64-unknown-linux-musl/lib/libc.a(syscall.o)
 .text.syscall_sched_getattr
                0x00000002000056fa       0x30 /home/zbtrs/ospp/rt-thread/bsp/toolchain/riscv64-linux-musleabi_for_x86_64-pc-linux-gnu/bin/../lib/gcc/riscv64-unknown-linux-musl/10.1.0/../../../../riscv64-unknown-linux-musl/lib/libc.a(syscall.o)
 .text.syscall_renameat2
                0x000000020000572a       0x30 /home/zbtrs/ospp/rt-thread/bsp/toolchain/riscv64-linux-musleabi_for_x86_64-pc-linux-gnu/bin/../lib/gcc/riscv64-unknown-linux-musl/10.1.0/../../../../riscv64-unknown-linux-musl/lib/libc.a(syscall.o)
 .text.syscall_seccomp
                0x000000020000575a       0x30 /home/zbtrs/ospp/rt-thread/bsp/toolchain/riscv64-linux-musleabi_for_x86_64-pc-linux-gnu/bin/../lib/gcc/riscv64-unknown-linux-musl/10.1.0/../../../../riscv64-unknown-linux-musl/lib/libc.a(syscall.o)
 .text.syscall_io_submit
                0x000000020000578a       0x30 /home/zbtrs/ospp/rt-thread/bsp/toolchain/riscv64-linux-musleabi_for_x86_64-pc-linux-gnu/bin/../lib/gcc/riscv64-unknown-linux-musl/10.1.0/../../../../riscv64-unknown-linux-musl/lib/libc.a(syscall.o)
 .text.syscall_io_cancel
                0x00000002000057ba       0x30 /home/zbtrs/ospp/rt-thread/bsp/toolchain/riscv64-linux-musleabi_for_x86_64-pc-linux-gnu/bin/../lib/gcc/riscv64-unknown-linux-musl/10.1.0/../../../../riscv64-unknown-linux-musl/lib/libc.a(syscall.o)
 .text.syscall_lookup_dcookie
                0x00000002000057ea       0x30 /home/zbtrs/ospp/rt-thread/bsp/toolchain/riscv64-linux-musleabi_for_x86_64-pc-linux-gnu/bin/../lib/gcc/riscv64-unknown-linux-musl/10.1.0/../../../../riscv64-unknown-linux-musl/lib/libc.a(syscall.o)
 .text.syscall_epoll_create
                0x000000020000581a       0x32 /home/zbtrs/ospp/rt-thread/bsp/toolchain/riscv64-linux-musleabi_for_x86_64-pc-linux-gnu/bin/../lib/gcc/riscv64-unknown-linux-musl/10.1.0/../../../../riscv64-unknown-linux-musl/lib/libc.a(syscall.o)
 .text.syscall_epoll_ctl
                0x000000020000584c       0x32 /home/zbtrs/ospp/rt-thread/bsp/toolchain/riscv64-linux-musleabi_for_x86_64-pc-linux-gnu/bin/../lib/gcc/riscv64-unknown-linux-musl/10.1.0/../../../../riscv64-unknown-linux-musl/lib/libc.a(syscall.o)
 .text.syscall_epoll_wait
                0x000000020000587e       0x32 /home/zbtrs/ospp/rt-thread/bsp/toolchain/riscv64-linux-musleabi_for_x86_64-pc-linux-gnu/bin/../lib/gcc/riscv64-unknown-linux-musl/10.1.0/../../../../riscv64-unknown-linux-musl/lib/libc.a(syscall.o)
 .text.syscall_remap_file_pages
                0x00000002000058b0       0x30 /home/zbtrs/ospp/rt-thread/bsp/toolchain/riscv64-linux-musleabi_for_x86_64-pc-linux-gnu/bin/../lib/gcc/riscv64-unknown-linux-musl/10.1.0/../../../../riscv64-unknown-linux-musl/lib/libc.a(syscall.o)
 .text.syscall_tgkill
                0x00000002000058e0       0x30 /home/zbtrs/ospp/rt-thread/bsp/toolchain/riscv64-linux-musleabi_for_x86_64-pc-linux-gnu/bin/../lib/gcc/riscv64-unknown-linux-musl/10.1.0/../../../../riscv64-unknown-linux-musl/lib/libc.a(syscall.o)
 .text.syscall_utimes
                0x0000000200005910       0x30 /home/zbtrs/ospp/rt-thread/bsp/toolchain/riscv64-linux-musleabi_for_x86_64-pc-linux-gnu/bin/../lib/gcc/riscv64-unknown-linux-musl/10.1.0/../../../../riscv64-unknown-linux-musl/lib/libc.a(syscall.o)
 .text.syscall_arm_fadvise64_64
                0x0000000200005940       0x30 /home/zbtrs/ospp/rt-thread/bsp/toolchain/riscv64-linux-musleabi_for_x86_64-pc-linux-gnu/bin/../lib/gcc/riscv64-unknown-linux-musl/10.1.0/../../../../riscv64-unknown-linux-musl/lib/libc.a(syscall.o)
 .text.syscall_pciconfig_iobase
                0x0000000200005970       0x30 /home/zbtrs/ospp/rt-thread/bsp/toolchain/riscv64-linux-musleabi_for_x86_64-pc-linux-gnu/bin/../lib/gcc/riscv64-unknown-linux-musl/10.1.0/../../../../riscv64-unknown-linux-musl/lib/libc.a(syscall.o)
 .text.syscall_pciconfig_read
                0x00000002000059a0       0x30 /home/zbtrs/ospp/rt-thread/bsp/toolchain/riscv64-linux-musleabi_for_x86_64-pc-linux-gnu/bin/../lib/gcc/riscv64-unknown-linux-musl/10.1.0/../../../../riscv64-unknown-linux-musl/lib/libc.a(syscall.o)
 .text.syscall_pciconfig_write
                0x00000002000059d0       0x30 /home/zbtrs/ospp/rt-thread/bsp/toolchain/riscv64-linux-musleabi_for_x86_64-pc-linux-gnu/bin/../lib/gcc/riscv64-unknown-linux-musl/10.1.0/../../../../riscv64-unknown-linux-musl/lib/libc.a(syscall.o)
 .text.syscall_waitid
                0x0000000200005a00       0x30 /home/zbtrs/ospp/rt-thread/bsp/toolchain/riscv64-linux-musleabi_for_x86_64-pc-linux-gnu/bin/../lib/gcc/riscv64-unknown-linux-musl/10.1.0/../../../../riscv64-unknown-linux-musl/lib/libc.a(syscall.o)
 .text.syscall_socketpair
                0x0000000200005a30       0x30 /home/zbtrs/ospp/rt-thread/bsp/toolchain/riscv64-linux-musleabi_for_x86_64-pc-linux-gnu/bin/../lib/gcc/riscv64-unknown-linux-musl/10.1.0/../../../../riscv64-unknown-linux-musl/lib/libc.a(syscall.o)
 .text.syscall_shutdown
                0x0000000200005a60       0x30 /home/zbtrs/ospp/rt-thread/bsp/toolchain/riscv64-linux-musleabi_for_x86_64-pc-linux-gnu/bin/../lib/gcc/riscv64-unknown-linux-musl/10.1.0/../../../../riscv64-unknown-linux-musl/lib/libc.a(syscall.o)
 .text.syscall_semop
                0x0000000200005a90       0x30 /home/zbtrs/ospp/rt-thread/bsp/toolchain/riscv64-linux-musleabi_for_x86_64-pc-linux-gnu/bin/../lib/gcc/riscv64-unknown-linux-musl/10.1.0/../../../../riscv64-unknown-linux-musl/lib/libc.a(syscall.o)
 .text.syscall_semget
                0x0000000200005ac0       0x30 /home/zbtrs/ospp/rt-thread/bsp/toolchain/riscv64-linux-musleabi_for_x86_64-pc-linux-gnu/bin/../lib/gcc/riscv64-unknown-linux-musl/10.1.0/../../../../riscv64-unknown-linux-musl/lib/libc.a(syscall.o)
 .text.syscall_semctl
                0x0000000200005af0       0x30 /home/zbtrs/ospp/rt-thread/bsp/toolchain/riscv64-linux-musleabi_for_x86_64-pc-linux-gnu/bin/../lib/gcc/riscv64-unknown-linux-musl/10.1.0/../../../../riscv64-unknown-linux-musl/lib/libc.a(syscall.o)
 .text.syscall_msgsnd
                0x0000000200005b20       0x30 /home/zbtrs/ospp/rt-thread/bsp/toolchain/riscv64-linux-musleabi_for_x86_64-pc-linux-gnu/bin/../lib/gcc/riscv64-unknown-linux-musl/10.1.0/../../../../riscv64-unknown-linux-musl/lib/libc.a(syscall.o)
 .text.syscall_msgrcv
                0x0000000200005b50       0x30 /home/zbtrs/ospp/rt-thread/bsp/toolchain/riscv64-linux-musleabi_for_x86_64-pc-linux-gnu/bin/../lib/gcc/riscv64-unknown-linux-musl/10.1.0/../../../../riscv64-unknown-linux-musl/lib/libc.a(syscall.o)
 .text.syscall_msgget
                0x0000000200005b80       0x30 /home/zbtrs/ospp/rt-thread/bsp/toolchain/riscv64-linux-musleabi_for_x86_64-pc-linux-gnu/bin/../lib/gcc/riscv64-unknown-linux-musl/10.1.0/../../../../riscv64-unknown-linux-musl/lib/libc.a(syscall.o)
 .text.syscall_msgctl
                0x0000000200005bb0       0x30 /home/zbtrs/ospp/rt-thread/bsp/toolchain/riscv64-linux-musleabi_for_x86_64-pc-linux-gnu/bin/../lib/gcc/riscv64-unknown-linux-musl/10.1.0/../../../../riscv64-unknown-linux-musl/lib/libc.a(syscall.o)
 .text.syscall_add_key
                0x0000000200005be0       0x30 /home/zbtrs/ospp/rt-thread/bsp/toolchain/riscv64-linux-musleabi_for_x86_64-pc-linux-gnu/bin/../lib/gcc/riscv64-unknown-linux-musl/10.1.0/../../../../riscv64-unknown-linux-musl/lib/libc.a(syscall.o)
 .text.syscall_request_key
                0x0000000200005c10       0x30 /home/zbtrs/ospp/rt-thread/bsp/toolchain/riscv64-linux-musleabi_for_x86_64-pc-linux-gnu/bin/../lib/gcc/riscv64-unknown-linux-musl/10.1.0/../../../../riscv64-unknown-linux-musl/lib/libc.a(syscall.o)
 .text.syscall_keyctl
                0x0000000200005c40       0x30 /home/zbtrs/ospp/rt-thread/bsp/toolchain/riscv64-linux-musleabi_for_x86_64-pc-linux-gnu/bin/../lib/gcc/riscv64-unknown-linux-musl/10.1.0/../../../../riscv64-unknown-linux-musl/lib/libc.a(syscall.o)
 .text.syscall_semtimedop
                0x0000000200005c70       0x30 /home/zbtrs/ospp/rt-thread/bsp/toolchain/riscv64-linux-musleabi_for_x86_64-pc-linux-gnu/bin/../lib/gcc/riscv64-unknown-linux-musl/10.1.0/../../../../riscv64-unknown-linux-musl/lib/libc.a(syscall.o)
 .text.syscall_vserver
                0x0000000200005ca0       0x30 /home/zbtrs/ospp/rt-thread/bsp/toolchain/riscv64-linux-musleabi_for_x86_64-pc-linux-gnu/bin/../lib/gcc/riscv64-unknown-linux-musl/10.1.0/../../../../riscv64-unknown-linux-musl/lib/libc.a(syscall.o)
 .text.syscall_ioprio_set
                0x0000000200005cd0       0x30 /home/zbtrs/ospp/rt-thread/bsp/toolchain/riscv64-linux-musleabi_for_x86_64-pc-linux-gnu/bin/../lib/gcc/riscv64-unknown-linux-musl/10.1.0/../../../../riscv64-unknown-linux-musl/lib/libc.a(syscall.o)
 .text.syscall_ioprio_get
                0x0000000200005d00       0x30 /home/zbtrs/ospp/rt-thread/bsp/toolchain/riscv64-linux-musleabi_for_x86_64-pc-linux-gnu/bin/../lib/gcc/riscv64-unknown-linux-musl/10.1.0/../../../../riscv64-unknown-linux-musl/lib/libc.a(syscall.o)
 .text.syscall_inotify_init
                0x0000000200005d30       0x30 /home/zbtrs/ospp/rt-thread/bsp/toolchain/riscv64-linux-musleabi_for_x86_64-pc-linux-gnu/bin/../lib/gcc/riscv64-unknown-linux-musl/10.1.0/../../../../riscv64-unknown-linux-musl/lib/libc.a(syscall.o)
 .text.syscall_inotify_add_watch
                0x0000000200005d60       0x30 /home/zbtrs/ospp/rt-thread/bsp/toolchain/riscv64-linux-musleabi_for_x86_64-pc-linux-gnu/bin/../lib/gcc/riscv64-unknown-linux-musl/10.1.0/../../../../riscv64-unknown-linux-musl/lib/libc.a(syscall.o)
 .text.syscall_inotify_rm_watch
                0x0000000200005d90       0x30 /home/zbtrs/ospp/rt-thread/bsp/toolchain/riscv64-linux-musleabi_for_x86_64-pc-linux-gnu/bin/../lib/gcc/riscv64-unknown-linux-musl/10.1.0/../../../../riscv64-unknown-linux-musl/lib/libc.a(syscall.o)
 .text.syscall_mbind
                0x0000000200005dc0       0x30 /home/zbtrs/ospp/rt-thread/bsp/toolchain/riscv64-linux-musleabi_for_x86_64-pc-linux-gnu/bin/../lib/gcc/riscv64-unknown-linux-musl/10.1.0/../../../../riscv64-unknown-linux-musl/lib/libc.a(syscall.o)
 .text.syscall_get_mempolicy
                0x0000000200005df0       0x30 /home/zbtrs/ospp/rt-thread/bsp/toolchain/riscv64-linux-musleabi_for_x86_64-pc-linux-gnu/bin/../lib/gcc/riscv64-unknown-linux-musl/10.1.0/../../../../riscv64-unknown-linux-musl/lib/libc.a(syscall.o)
 .text.syscall_set_mempolicy
                0x0000000200005e20       0x30 /home/zbtrs/ospp/rt-thread/bsp/toolchain/riscv64-linux-musleabi_for_x86_64-pc-linux-gnu/bin/../lib/gcc/riscv64-unknown-linux-musl/10.1.0/../../../../riscv64-unknown-linux-musl/lib/libc.a(syscall.o)
 .text.syscall_mkdirat
                0x0000000200005e50       0x30 /home/zbtrs/ospp/rt-thread/bsp/toolchain/riscv64-linux-musleabi_for_x86_64-pc-linux-gnu/bin/../lib/gcc/riscv64-unknown-linux-musl/10.1.0/../../../../riscv64-unknown-linux-musl/lib/libc.a(syscall.o)
 .text.syscall_mknodat
                0x0000000200005e80       0x30 /home/zbtrs/ospp/rt-thread/bsp/toolchain/riscv64-linux-musleabi_for_x86_64-pc-linux-gnu/bin/../lib/gcc/riscv64-unknown-linux-musl/10.1.0/../../../../riscv64-unknown-linux-musl/lib/libc.a(syscall.o)
 .text.syscall_fchownat
                0x0000000200005eb0       0x30 /home/zbtrs/ospp/rt-thread/bsp/toolchain/riscv64-linux-musleabi_for_x86_64-pc-linux-gnu/bin/../lib/gcc/riscv64-unknown-linux-musl/10.1.0/../../../../riscv64-unknown-linux-musl/lib/libc.a(syscall.o)
 .text.syscall_futimesat
                0x0000000200005ee0       0x30 /home/zbtrs/ospp/rt-thread/bsp/toolchain/riscv64-linux-musleabi_for_x86_64-pc-linux-gnu/bin/../lib/gcc/riscv64-unknown-linux-musl/10.1.0/../../../../riscv64-unknown-linux-musl/lib/libc.a(syscall.o)
 .text.syscall_fstatat64
                0x0000000200005f10       0x30 /home/zbtrs/ospp/rt-thread/bsp/toolchain/riscv64-linux-musleabi_for_x86_64-pc-linux-gnu/bin/../lib/gcc/riscv64-unknown-linux-musl/10.1.0/../../../../riscv64-unknown-linux-musl/lib/libc.a(syscall.o)
 .text.syscall_unlinkat
                0x0000000200005f40       0x30 /home/zbtrs/ospp/rt-thread/bsp/toolchain/riscv64-linux-musleabi_for_x86_64-pc-linux-gnu/bin/../lib/gcc/riscv64-unknown-linux-musl/10.1.0/../../../../riscv64-unknown-linux-musl/lib/libc.a(syscall.o)
 .text.syscall_renameat
                0x0000000200005f70       0x30 /home/zbtrs/ospp/rt-thread/bsp/toolchain/riscv64-linux-musleabi_for_x86_64-pc-linux-gnu/bin/../lib/gcc/riscv64-unknown-linux-musl/10.1.0/../../../../riscv64-unknown-linux-musl/lib/libc.a(syscall.o)
 .text.syscall_linkat
                0x0000000200005fa0       0x30 /home/zbtrs/ospp/rt-thread/bsp/toolchain/riscv64-linux-musleabi_for_x86_64-pc-linux-gnu/bin/../lib/gcc/riscv64-unknown-linux-musl/10.1.0/../../../../riscv64-unknown-linux-musl/lib/libc.a(syscall.o)
 .text.syscall_symlinkat
                0x0000000200005fd0       0x30 /home/zbtrs/ospp/rt-thread/bsp/toolchain/riscv64-linux-musleabi_for_x86_64-pc-linux-gnu/bin/../lib/gcc/riscv64-unknown-linux-musl/10.1.0/../../../../riscv64-unknown-linux-musl/lib/libc.a(syscall.o)
 .text.syscall_readlinkat
                0x0000000200006000       0x30 /home/zbtrs/ospp/rt-thread/bsp/toolchain/riscv64-linux-musleabi_for_x86_64-pc-linux-gnu/bin/../lib/gcc/riscv64-unknown-linux-musl/10.1.0/../../../../riscv64-unknown-linux-musl/lib/libc.a(syscall.o)
 .text.syscall_fchmodat
                0x0000000200006030       0x30 /home/zbtrs/ospp/rt-thread/bsp/toolchain/riscv64-linux-musleabi_for_x86_64-pc-linux-gnu/bin/../lib/gcc/riscv64-unknown-linux-musl/10.1.0/../../../../riscv64-unknown-linux-musl/lib/libc.a(syscall.o)
 .text.syscall_faccessat
                0x0000000200006060       0x30 /home/zbtrs/ospp/rt-thread/bsp/toolchain/riscv64-linux-musleabi_for_x86_64-pc-linux-gnu/bin/../lib/gcc/riscv64-unknown-linux-musl/10.1.0/../../../../riscv64-unknown-linux-musl/lib/libc.a(syscall.o)
 .text.syscall_pselect6
                0x0000000200006090       0x30 /home/zbtrs/ospp/rt-thread/bsp/toolchain/riscv64-linux-musleabi_for_x86_64-pc-linux-gnu/bin/../lib/gcc/riscv64-unknown-linux-musl/10.1.0/../../../../riscv64-unknown-linux-musl/lib/libc.a(syscall.o)
 .text.syscall_ppoll
                0x00000002000060c0       0x30 /home/zbtrs/ospp/rt-thread/bsp/toolchain/riscv64-linux-musleabi_for_x86_64-pc-linux-gnu/bin/../lib/gcc/riscv64-unknown-linux-musl/10.1.0/../../../../riscv64-unknown-linux-musl/lib/libc.a(syscall.o)
 .text.syscall_unshare
                0x00000002000060f0       0x30 /home/zbtrs/ospp/rt-thread/bsp/toolchain/riscv64-linux-musleabi_for_x86_64-pc-linux-gnu/bin/../lib/gcc/riscv64-unknown-linux-musl/10.1.0/../../../../riscv64-unknown-linux-musl/lib/libc.a(syscall.o)
 .text.syscall_set_robust_list
                0x0000000200006120       0x30 /home/zbtrs/ospp/rt-thread/bsp/toolchain/riscv64-linux-musleabi_for_x86_64-pc-linux-gnu/bin/../lib/gcc/riscv64-unknown-linux-musl/10.1.0/../../../../riscv64-unknown-linux-musl/lib/libc.a(syscall.o)
 .text.syscall_get_robust_list
                0x0000000200006150       0x30 /home/zbtrs/ospp/rt-thread/bsp/toolchain/riscv64-linux-musleabi_for_x86_64-pc-linux-gnu/bin/../lib/gcc/riscv64-unknown-linux-musl/10.1.0/../../../../riscv64-unknown-linux-musl/lib/libc.a(syscall.o)
 .text.syscall_splice
                0x0000000200006180       0x30 /home/zbtrs/ospp/rt-thread/bsp/toolchain/riscv64-linux-musleabi_for_x86_64-pc-linux-gnu/bin/../lib/gcc/riscv64-unknown-linux-musl/10.1.0/../../../../riscv64-unknown-linux-musl/lib/libc.a(syscall.o)
 .text.syscall_arm_sync_file_range
                0x00000002000061b0       0x30 /home/zbtrs/ospp/rt-thread/bsp/toolchain/riscv64-linux-musleabi_for_x86_64-pc-linux-gnu/bin/../lib/gcc/riscv64-unknown-linux-musl/10.1.0/../../../../riscv64-unknown-linux-musl/lib/libc.a(syscall.o)
 .text.syscall_tee
                0x00000002000061e0       0x30 /home/zbtrs/ospp/rt-thread/bsp/toolchain/riscv64-linux-musleabi_for_x86_64-pc-linux-gnu/bin/../lib/gcc/riscv64-unknown-linux-musl/10.1.0/../../../../riscv64-unknown-linux-musl/lib/libc.a(syscall.o)
 .text.syscall_vmsplice
                0x0000000200006210       0x30 /home/zbtrs/ospp/rt-thread/bsp/toolchain/riscv64-linux-musleabi_for_x86_64-pc-linux-gnu/bin/../lib/gcc/riscv64-unknown-linux-musl/10.1.0/../../../../riscv64-unknown-linux-musl/lib/libc.a(syscall.o)
 .text.syscall_move_pages
                0x0000000200006240       0x30 /home/zbtrs/ospp/rt-thread/bsp/toolchain/riscv64-linux-musleabi_for_x86_64-pc-linux-gnu/bin/../lib/gcc/riscv64-unknown-linux-musl/10.1.0/../../../../riscv64-unknown-linux-musl/lib/libc.a(syscall.o)
 .text.syscall_getcpu
                0x0000000200006270       0x30 /home/zbtrs/ospp/rt-thread/bsp/toolchain/riscv64-linux-musleabi_for_x86_64-pc-linux-gnu/bin/../lib/gcc/riscv64-unknown-linux-musl/10.1.0/../../../../riscv64-unknown-linux-musl/lib/libc.a(syscall.o)
 .text.syscall_epoll_pwait
                0x00000002000062a0       0x32 /home/zbtrs/ospp/rt-thread/bsp/toolchain/riscv64-linux-musleabi_for_x86_64-pc-linux-gnu/bin/../lib/gcc/riscv64-unknown-linux-musl/10.1.0/../../../../riscv64-unknown-linux-musl/lib/libc.a(syscall.o)
 .text.syscall_kexec_load
                0x00000002000062d2       0x30 /home/zbtrs/ospp/rt-thread/bsp/toolchain/riscv64-linux-musleabi_for_x86_64-pc-linux-gnu/bin/../lib/gcc/riscv64-unknown-linux-musl/10.1.0/../../../../riscv64-unknown-linux-musl/lib/libc.a(syscall.o)
 .text.syscall_utimensat
                0x0000000200006302       0x30 /home/zbtrs/ospp/rt-thread/bsp/toolchain/riscv64-linux-musleabi_for_x86_64-pc-linux-gnu/bin/../lib/gcc/riscv64-unknown-linux-musl/10.1.0/../../../../riscv64-unknown-linux-musl/lib/libc.a(syscall.o)
 .text.syscall_signalfd
                0x0000000200006332       0x30 /home/zbtrs/ospp/rt-thread/bsp/toolchain/riscv64-linux-musleabi_for_x86_64-pc-linux-gnu/bin/../lib/gcc/riscv64-unknown-linux-musl/10.1.0/../../../../riscv64-unknown-linux-musl/lib/libc.a(syscall.o)
 .text.get_rtt_syscall
                0x0000000200006362       0x34 /home/zbtrs/ospp/rt-thread/bsp/toolchain/riscv64-linux-musleabi_for_x86_64-pc-linux-gnu/bin/../lib/gcc/riscv64-unknown-linux-musl/10.1.0/../../../../riscv64-unknown-linux-musl/lib/libc.a(syscall.o)
                0x0000000200006362                get_rtt_syscall
 .text.___syscall
                0x0000000200006396       0x56 /home/zbtrs/ospp/rt-thread/bsp/toolchain/riscv64-linux-musleabi_for_x86_64-pc-linux-gnu/bin/../lib/gcc/riscv64-unknown-linux-musl/10.1.0/../../../../riscv64-unknown-linux-musl/lib/libc.a(syscall.o)
                0x0000000200006396                ___syscall
 .text          0x00000002000063ec        0x0 /home/zbtrs/ospp/rt-thread/bsp/toolchain/riscv64-linux-musleabi_for_x86_64-pc-linux-gnu/bin/../lib/gcc/riscv64-unknown-linux-musl/10.1.0/../../../../riscv64-unknown-linux-musl/lib/libc.a(syscall_ret.o)
 .text.__syscall_ret
                0x00000002000063ec       0x24 /home/zbtrs/ospp/rt-thread/bsp/toolchain/riscv64-linux-musleabi_for_x86_64-pc-linux-gnu/bin/../lib/gcc/riscv64-unknown-linux-musl/10.1.0/../../../../riscv64-unknown-linux-musl/lib/libc.a(syscall_ret.o)
                0x00000002000063ec                __syscall_ret
 .text          0x0000000200006410        0x0 /home/zbtrs/ospp/rt-thread/bsp/toolchain/riscv64-linux-musleabi_for_x86_64-pc-linux-gnu/bin/../lib/gcc/riscv64-unknown-linux-musl/10.1.0/../../../../riscv64-unknown-linux-musl/lib/libc.a(__lctrans.o)
 .text.dummy    0x0000000200006410        0x2 /home/zbtrs/ospp/rt-thread/bsp/toolchain/riscv64-linux-musleabi_for_x86_64-pc-linux-gnu/bin/../lib/gcc/riscv64-unknown-linux-musl/10.1.0/../../../../riscv64-unknown-linux-musl/lib/libc.a(__lctrans.o)
                0x0000000200006410                __lctrans_impl
 .text.__lctrans
                0x0000000200006412        0x4 /home/zbtrs/ospp/rt-thread/bsp/toolchain/riscv64-linux-musleabi_for_x86_64-pc-linux-gnu/bin/../lib/gcc/riscv64-unknown-linux-musl/10.1.0/../../../../riscv64-unknown-linux-musl/lib/libc.a(__lctrans.o)
                0x0000000200006412                __lctrans
 .text.__lctrans_cur
                0x0000000200006416        0xc /home/zbtrs/ospp/rt-thread/bsp/toolchain/riscv64-linux-musleabi_for_x86_64-pc-linux-gnu/bin/../lib/gcc/riscv64-unknown-linux-musl/10.1.0/../../../../riscv64-unknown-linux-musl/lib/libc.a(__lctrans.o)
                0x0000000200006416                __lctrans_cur
 .text          0x0000000200006422        0x0 /home/zbtrs/ospp/rt-thread/bsp/toolchain/riscv64-linux-musleabi_for_x86_64-pc-linux-gnu/bin/../lib/gcc/riscv64-unknown-linux-musl/10.1.0/../../../../riscv64-unknown-linux-musl/lib/libc.a(lite_malloc.o)
 .text.__simple_malloc
                0x0000000200006422       0xf0 /home/zbtrs/ospp/rt-thread/bsp/toolchain/riscv64-linux-musleabi_for_x86_64-pc-linux-gnu/bin/../lib/gcc/riscv64-unknown-linux-musl/10.1.0/../../../../riscv64-unknown-linux-musl/lib/libc.a(lite_malloc.o)
 .text.__simple_calloc
                0x0000000200006512       0x24 /home/zbtrs/ospp/rt-thread/bsp/toolchain/riscv64-linux-musleabi_for_x86_64-pc-linux-gnu/bin/../lib/gcc/riscv64-unknown-linux-musl/10.1.0/../../../../riscv64-unknown-linux-musl/lib/libc.a(lite_malloc.o)
 .text          0x0000000200006536        0x0 /home/zbtrs/ospp/rt-thread/bsp/toolchain/riscv64-linux-musleabi_for_x86_64-pc-linux-gnu/bin/../lib/gcc/riscv64-unknown-linux-musl/10.1.0/../../../../riscv64-unknown-linux-musl/lib/libc.a(malloc.o)
 .text.unbin    0x0000000200006536       0x84 /home/zbtrs/ospp/rt-thread/bsp/toolchain/riscv64-linux-musleabi_for_x86_64-pc-linux-gnu/bin/../lib/gcc/riscv64-unknown-linux-musl/10.1.0/../../../../riscv64-unknown-linux-musl/lib/libc.a(malloc.o)
 .text.alloc_fwd
                0x00000002000065ba      0x204 /home/zbtrs/ospp/rt-thread/bsp/toolchain/riscv64-linux-musleabi_for_x86_64-pc-linux-gnu/bin/../lib/gcc/riscv64-unknown-linux-musl/10.1.0/../../../../riscv64-unknown-linux-musl/lib/libc.a(malloc.o)
 .text.alloc_rev
                0x00000002000067be      0x20a /home/zbtrs/ospp/rt-thread/bsp/toolchain/riscv64-linux-musleabi_for_x86_64-pc-linux-gnu/bin/../lib/gcc/riscv64-unknown-linux-musl/10.1.0/../../../../riscv64-unknown-linux-musl/lib/libc.a(malloc.o)
 .text.__bin_chunk
                0x00000002000069c8      0x43a /home/zbtrs/ospp/rt-thread/bsp/toolchain/riscv64-linux-musleabi_for_x86_64-pc-linux-gnu/bin/../lib/gcc/riscv64-unknown-linux-musl/10.1.0/../../../../riscv64-unknown-linux-musl/lib/libc.a(malloc.o)
                0x00000002000069c8                __bin_chunk
 .text.malloc   0x0000000200006e02      0x4ba /home/zbtrs/ospp/rt-thread/bsp/toolchain/riscv64-linux-musleabi_for_x86_64-pc-linux-gnu/bin/../lib/gcc/riscv64-unknown-linux-musl/10.1.0/../../../../riscv64-unknown-linux-musl/lib/libc.a(malloc.o)
                0x0000000200006e02                malloc
 .text.calloc   0x00000002000072bc       0xa0 /home/zbtrs/ospp/rt-thread/bsp/toolchain/riscv64-linux-musleabi_for_x86_64-pc-linux-gnu/bin/../lib/gcc/riscv64-unknown-linux-musl/10.1.0/../../../../riscv64-unknown-linux-musl/lib/libc.a(malloc.o)
                0x00000002000072bc                calloc
 .text.free     0x000000020000735c       0x2e /home/zbtrs/ospp/rt-thread/bsp/toolchain/riscv64-linux-musleabi_for_x86_64-pc-linux-gnu/bin/../lib/gcc/riscv64-unknown-linux-musl/10.1.0/../../../../riscv64-unknown-linux-musl/lib/libc.a(malloc.o)
                0x000000020000735c                free
 .text.realloc  0x000000020000738a      0x188 /home/zbtrs/ospp/rt-thread/bsp/toolchain/riscv64-linux-musleabi_for_x86_64-pc-linux-gnu/bin/../lib/gcc/riscv64-unknown-linux-musl/10.1.0/../../../../riscv64-unknown-linux-musl/lib/libc.a(malloc.o)
                0x000000020000738a                realloc
 .text.__malloc_donate
                0x0000000200007512       0x40 /home/zbtrs/ospp/rt-thread/bsp/toolchain/riscv64-linux-musleabi_for_x86_64-pc-linux-gnu/bin/../lib/gcc/riscv64-unknown-linux-musl/10.1.0/../../../../riscv64-unknown-linux-musl/lib/libc.a(malloc.o)
                0x0000000200007512                __malloc_donate
 .text          0x0000000200007552        0x0 /home/zbtrs/ospp/rt-thread/bsp/toolchain/riscv64-linux-musleabi_for_x86_64-pc-linux-gnu/bin/../lib/gcc/riscv64-unknown-linux-musl/10.1.0/../../../../riscv64-unknown-linux-musl/lib/libc.a(getopt_long.o)
 .text.__getopt_long
                0x0000000200007552      0x3c0 /home/zbtrs/ospp/rt-thread/bsp/toolchain/riscv64-linux-musleabi_for_x86_64-pc-linux-gnu/bin/../lib/gcc/riscv64-unknown-linux-musl/10.1.0/../../../../riscv64-unknown-linux-musl/lib/libc.a(getopt_long.o)
 .text.getopt_long
                0x0000000200007912        0x6 /home/zbtrs/ospp/rt-thread/bsp/toolchain/riscv64-linux-musleabi_for_x86_64-pc-linux-gnu/bin/../lib/gcc/riscv64-unknown-linux-musl/10.1.0/../../../../riscv64-unknown-linux-musl/lib/libc.a(getopt_long.o)
                0x0000000200007912                getopt_long
 .text.getopt_long_only
                0x0000000200007918        0x6 /home/zbtrs/ospp/rt-thread/bsp/toolchain/riscv64-linux-musleabi_for_x86_64-pc-linux-gnu/bin/../lib/gcc/riscv64-unknown-linux-musl/10.1.0/../../../../riscv64-unknown-linux-musl/lib/libc.a(getopt_long.o)
                0x0000000200007918                getopt_long_only
 .text          0x000000020000791e        0x0 /home/zbtrs/ospp/rt-thread/bsp/toolchain/riscv64-linux-musleabi_for_x86_64-pc-linux-gnu/bin/../lib/gcc/riscv64-unknown-linux-musl/10.1.0/../../../../riscv64-unknown-linux-musl/lib/libc.a(madvise.o)
 .text.__madvise
                0x000000020000791e       0x3a /home/zbtrs/ospp/rt-thread/bsp/toolchain/riscv64-linux-musleabi_for_x86_64-pc-linux-gnu/bin/../lib/gcc/riscv64-unknown-linux-musl/10.1.0/../../../../riscv64-unknown-linux-musl/lib/libc.a(madvise.o)
                0x000000020000791e                madvise
                0x000000020000791e                __madvise
 .text          0x0000000200007958        0x0 /home/zbtrs/ospp/rt-thread/bsp/toolchain/riscv64-linux-musleabi_for_x86_64-pc-linux-gnu/bin/../lib/gcc/riscv64-unknown-linux-musl/10.1.0/../../../../riscv64-unknown-linux-musl/lib/libc.a(mmap.o)
 .text.dummy    0x0000000200007958        0x2 /home/zbtrs/ospp/rt-thread/bsp/toolchain/riscv64-linux-musleabi_for_x86_64-pc-linux-gnu/bin/../lib/gcc/riscv64-unknown-linux-musl/10.1.0/../../../../riscv64-unknown-linux-musl/lib/libc.a(mmap.o)
 .text.__mmap   0x000000020000795a       0xc0 /home/zbtrs/ospp/rt-thread/bsp/toolchain/riscv64-linux-musleabi_for_x86_64-pc-linux-gnu/bin/../lib/gcc/riscv64-unknown-linux-musl/10.1.0/../../../../riscv64-unknown-linux-musl/lib/libc.a(mmap.o)
                0x000000020000795a                __mmap
                0x000000020000795a                mmap
                0x000000020000795a                mmap64
 .text          0x0000000200007a1a        0x0 /home/zbtrs/ospp/rt-thread/bsp/toolchain/riscv64-linux-musleabi_for_x86_64-pc-linux-gnu/bin/../lib/gcc/riscv64-unknown-linux-musl/10.1.0/../../../../riscv64-unknown-linux-musl/lib/libc.a(mremap.o)
 .text.dummy    0x0000000200007a1a        0x2 /home/zbtrs/ospp/rt-thread/bsp/toolchain/riscv64-linux-musleabi_for_x86_64-pc-linux-gnu/bin/../lib/gcc/riscv64-unknown-linux-musl/10.1.0/../../../../riscv64-unknown-linux-musl/lib/libc.a(mremap.o)
 .text.__mremap
                0x0000000200007a1c       0x82 /home/zbtrs/ospp/rt-thread/bsp/toolchain/riscv64-linux-musleabi_for_x86_64-pc-linux-gnu/bin/../lib/gcc/riscv64-unknown-linux-musl/10.1.0/../../../../riscv64-unknown-linux-musl/lib/libc.a(mremap.o)
                0x0000000200007a1c                mremap
                0x0000000200007a1c                __mremap
 .text          0x0000000200007a9e        0x0 /home/zbtrs/ospp/rt-thread/bsp/toolchain/riscv64-linux-musleabi_for_x86_64-pc-linux-gnu/bin/../lib/gcc/riscv64-unknown-linux-musl/10.1.0/../../../../riscv64-unknown-linux-musl/lib/libc.a(munmap.o)
 .text.dummy    0x0000000200007a9e        0x2 /home/zbtrs/ospp/rt-thread/bsp/toolchain/riscv64-linux-musleabi_for_x86_64-pc-linux-gnu/bin/../lib/gcc/riscv64-unknown-linux-musl/10.1.0/../../../../riscv64-unknown-linux-musl/lib/libc.a(munmap.o)
 .text.__munmap
                0x0000000200007aa0       0x44 /home/zbtrs/ospp/rt-thread/bsp/toolchain/riscv64-linux-musleabi_for_x86_64-pc-linux-gnu/bin/../lib/gcc/riscv64-unknown-linux-musl/10.1.0/../../../../riscv64-unknown-linux-musl/lib/libc.a(munmap.o)
                0x0000000200007aa0                munmap
                0x0000000200007aa0                __munmap
 .text          0x0000000200007ae4        0x0 /home/zbtrs/ospp/rt-thread/bsp/toolchain/riscv64-linux-musleabi_for_x86_64-pc-linux-gnu/bin/../lib/gcc/riscv64-unknown-linux-musl/10.1.0/../../../../riscv64-unknown-linux-musl/lib/libc.a(mblen.o)
 .text.mblen    0x0000000200007ae4        0x8 /home/zbtrs/ospp/rt-thread/bsp/toolchain/riscv64-linux-musleabi_for_x86_64-pc-linux-gnu/bin/../lib/gcc/riscv64-unknown-linux-musl/10.1.0/../../../../riscv64-unknown-linux-musl/lib/libc.a(mblen.o)
                0x0000000200007ae4                mblen
 .text          0x0000000200007aec        0x0 /home/zbtrs/ospp/rt-thread/bsp/toolchain/riscv64-linux-musleabi_for_x86_64-pc-linux-gnu/bin/../lib/gcc/riscv64-unknown-linux-musl/10.1.0/../../../../riscv64-unknown-linux-musl/lib/libc.a(mbtowc.o)
 .text.mbtowc   0x0000000200007aec      0x112 /home/zbtrs/ospp/rt-thread/bsp/toolchain/riscv64-linux-musleabi_for_x86_64-pc-linux-gnu/bin/../lib/gcc/riscv64-unknown-linux-musl/10.1.0/../../../../riscv64-unknown-linux-musl/lib/libc.a(mbtowc.o)
                0x0000000200007aec                mbtowc
 .text          0x0000000200007bfe        0x0 /home/zbtrs/ospp/rt-thread/bsp/toolchain/riscv64-linux-musleabi_for_x86_64-pc-linux-gnu/bin/../lib/gcc/riscv64-unknown-linux-musl/10.1.0/../../../../riscv64-unknown-linux-musl/lib/libc.a(accept.o)
 .text.accept   0x0000000200007bfe       0x24 /home/zbtrs/ospp/rt-thread/bsp/toolchain/riscv64-linux-musleabi_for_x86_64-pc-linux-gnu/bin/../lib/gcc/riscv64-unknown-linux-musl/10.1.0/../../../../riscv64-unknown-linux-musl/lib/libc.a(accept.o)
                0x0000000200007bfe                accept
 .text          0x0000000200007c22        0x0 /home/zbtrs/ospp/rt-thread/bsp/toolchain/riscv64-linux-musleabi_for_x86_64-pc-linux-gnu/bin/../lib/gcc/riscv64-unknown-linux-musl/10.1.0/../../../../riscv64-unknown-linux-musl/lib/libc.a(bind.o)
 .text.bind     0x0000000200007c22       0x44 /home/zbtrs/ospp/rt-thread/bsp/toolchain/riscv64-linux-musleabi_for_x86_64-pc-linux-gnu/bin/../lib/gcc/riscv64-unknown-linux-musl/10.1.0/../../../../riscv64-unknown-linux-musl/lib/libc.a(bind.o)
                0x0000000200007c22                bind
 .text          0x0000000200007c66        0x0 /home/zbtrs/ospp/rt-thread/bsp/toolchain/riscv64-linux-musleabi_for_x86_64-pc-linux-gnu/bin/../lib/gcc/riscv64-unknown-linux-musl/10.1.0/../../../../riscv64-unknown-linux-musl/lib/libc.a(connect.o)
 .text.connect  0x0000000200007c66       0x28 /home/zbtrs/ospp/rt-thread/bsp/toolchain/riscv64-linux-musleabi_for_x86_64-pc-linux-gnu/bin/../lib/gcc/riscv64-unknown-linux-musl/10.1.0/../../../../riscv64-unknown-linux-musl/lib/libc.a(connect.o)
                0x0000000200007c66                connect
 .text          0x0000000200007c8e        0x0 /home/zbtrs/ospp/rt-thread/bsp/toolchain/riscv64-linux-musleabi_for_x86_64-pc-linux-gnu/bin/../lib/gcc/riscv64-unknown-linux-musl/10.1.0/../../../../riscv64-unknown-linux-musl/lib/libc.a(htonl.o)
 .text.htonl    0x0000000200007c8e       0x28 /home/zbtrs/ospp/rt-thread/bsp/toolchain/riscv64-linux-musleabi_for_x86_64-pc-linux-gnu/bin/../lib/gcc/riscv64-unknown-linux-musl/10.1.0/../../../../riscv64-unknown-linux-musl/lib/libc.a(htonl.o)
                0x0000000200007c8e                htonl
 .text          0x0000000200007cb6        0x0 /home/zbtrs/ospp/rt-thread/bsp/toolchain/riscv64-linux-musleabi_for_x86_64-pc-linux-gnu/bin/../lib/gcc/riscv64-unknown-linux-musl/10.1.0/../../../../riscv64-unknown-linux-musl/lib/libc.a(htons.o)
 .text.htons    0x0000000200007cb6       0x10 /home/zbtrs/ospp/rt-thread/bsp/toolchain/riscv64-linux-musleabi_for_x86_64-pc-linux-gnu/bin/../lib/gcc/riscv64-unknown-linux-musl/10.1.0/../../../../riscv64-unknown-linux-musl/lib/libc.a(htons.o)
                0x0000000200007cb6                htons
 .text          0x0000000200007cc6        0x0 /home/zbtrs/ospp/rt-thread/bsp/toolchain/riscv64-linux-musleabi_for_x86_64-pc-linux-gnu/bin/../lib/gcc/riscv64-unknown-linux-musl/10.1.0/../../../../riscv64-unknown-linux-musl/lib/libc.a(listen.o)
 .text.listen   0x0000000200007cc6       0x48 /home/zbtrs/ospp/rt-thread/bsp/toolchain/riscv64-linux-musleabi_for_x86_64-pc-linux-gnu/bin/../lib/gcc/riscv64-unknown-linux-musl/10.1.0/../../../../riscv64-unknown-linux-musl/lib/libc.a(listen.o)
                0x0000000200007cc6                listen
 .text          0x0000000200007d0e        0x0 /home/zbtrs/ospp/rt-thread/bsp/toolchain/riscv64-linux-musleabi_for_x86_64-pc-linux-gnu/bin/../lib/gcc/riscv64-unknown-linux-musl/10.1.0/../../../../riscv64-unknown-linux-musl/lib/libc.a(setsockopt.o)
 .text.setsockopt
                0x0000000200007d0e       0x50 /home/zbtrs/ospp/rt-thread/bsp/toolchain/riscv64-linux-musleabi_for_x86_64-pc-linux-gnu/bin/../lib/gcc/riscv64-unknown-linux-musl/10.1.0/../../../../riscv64-unknown-linux-musl/lib/libc.a(setsockopt.o)
                0x0000000200007d0e                setsockopt
 .text          0x0000000200007d5e        0x0 /home/zbtrs/ospp/rt-thread/bsp/toolchain/riscv64-linux-musleabi_for_x86_64-pc-linux-gnu/bin/../lib/gcc/riscv64-unknown-linux-musl/10.1.0/../../../../riscv64-unknown-linux-musl/lib/libc.a(socket.o)
 .text.socket   0x0000000200007d5e       0xea /home/zbtrs/ospp/rt-thread/bsp/toolchain/riscv64-linux-musleabi_for_x86_64-pc-linux-gnu/bin/../lib/gcc/riscv64-unknown-linux-musl/10.1.0/../../../../riscv64-unknown-linux-musl/lib/libc.a(socket.o)
                0x0000000200007d5e                socket
 .text          0x0000000200007e48        0x0 /home/zbtrs/ospp/rt-thread/bsp/toolchain/riscv64-linux-musleabi_for_x86_64-pc-linux-gnu/bin/../lib/gcc/riscv64-unknown-linux-musl/10.1.0/../../../../riscv64-unknown-linux-musl/lib/libc.a(rand.o)
 .text.srand    0x0000000200007e48       0x10 /home/zbtrs/ospp/rt-thread/bsp/toolchain/riscv64-linux-musleabi_for_x86_64-pc-linux-gnu/bin/../lib/gcc/riscv64-unknown-linux-musl/10.1.0/../../../../riscv64-unknown-linux-musl/lib/libc.a(rand.o)
                0x0000000200007e48                srand
 .text.rand     0x0000000200007e58       0x1e /home/zbtrs/ospp/rt-thread/bsp/toolchain/riscv64-linux-musleabi_for_x86_64-pc-linux-gnu/bin/../lib/gcc/riscv64-unknown-linux-musl/10.1.0/../../../../riscv64-unknown-linux-musl/lib/libc.a(rand.o)
                0x0000000200007e58                rand
 .text          0x0000000200007e76        0x0 /home/zbtrs/ospp/rt-thread/bsp/toolchain/riscv64-linux-musleabi_for_x86_64-pc-linux-gnu/bin/../lib/gcc/riscv64-unknown-linux-musl/10.1.0/../../../../riscv64-unknown-linux-musl/lib/libc.a(select.o)
 .text.select   0x0000000200007e76       0x24 /home/zbtrs/ospp/rt-thread/bsp/toolchain/riscv64-linux-musleabi_for_x86_64-pc-linux-gnu/bin/../lib/gcc/riscv64-unknown-linux-musl/10.1.0/../../../../riscv64-unknown-linux-musl/lib/libc.a(select.o)
                0x0000000200007e76                select
 .text          0x0000000200007e9a        0x0 /home/zbtrs/ospp/rt-thread/bsp/toolchain/riscv64-linux-musleabi_for_x86_64-pc-linux-gnu/bin/../lib/gcc/riscv64-unknown-linux-musl/10.1.0/../../../../riscv64-unknown-linux-musl/lib/libc.a(perror.o)
 .text.perror   0x0000000200007e9a      0x11a /home/zbtrs/ospp/rt-thread/bsp/toolchain/riscv64-linux-musleabi_for_x86_64-pc-linux-gnu/bin/../lib/gcc/riscv64-unknown-linux-musl/10.1.0/../../../../riscv64-unknown-linux-musl/lib/libc.a(perror.o)
                0x0000000200007e9a                perror
 .text          0x0000000200007fb4        0x0 /home/zbtrs/ospp/rt-thread/bsp/toolchain/riscv64-linux-musleabi_for_x86_64-pc-linux-gnu/bin/../lib/gcc/riscv64-unknown-linux-musl/10.1.0/../../../../riscv64-unknown-linux-musl/lib/libc.a(printf.o)
 .text.printf   0x0000000200007fb4       0x2e /home/zbtrs/ospp/rt-thread/bsp/toolchain/riscv64-linux-musleabi_for_x86_64-pc-linux-gnu/bin/../lib/gcc/riscv64-unknown-linux-musl/10.1.0/../../../../riscv64-unknown-linux-musl/lib/libc.a(printf.o)
                0x0000000200007fb4                printf
 .text          0x0000000200007fe2        0x0 /home/zbtrs/ospp/rt-thread/bsp/toolchain/riscv64-linux-musleabi_for_x86_64-pc-linux-gnu/bin/../lib/gcc/riscv64-unknown-linux-musl/10.1.0/../../../../riscv64-unknown-linux-musl/lib/libc.a(puts.o)
 .text.puts     0x0000000200007fe2       0xa0 /home/zbtrs/ospp/rt-thread/bsp/toolchain/riscv64-linux-musleabi_for_x86_64-pc-linux-gnu/bin/../lib/gcc/riscv64-unknown-linux-musl/10.1.0/../../../../riscv64-unknown-linux-musl/lib/libc.a(puts.o)
                0x0000000200007fe2                puts
 .text          0x0000000200008082        0x0 /home/zbtrs/ospp/rt-thread/bsp/toolchain/riscv64-linux-musleabi_for_x86_64-pc-linux-gnu/bin/../lib/gcc/riscv64-unknown-linux-musl/10.1.0/../../../../riscv64-unknown-linux-musl/lib/libc.a(stderr.o)
 .text          0x0000000200008082        0x0 /home/zbtrs/ospp/rt-thread/bsp/toolchain/riscv64-linux-musleabi_for_x86_64-pc-linux-gnu/bin/../lib/gcc/riscv64-unknown-linux-musl/10.1.0/../../../../riscv64-unknown-linux-musl/lib/libc.a(stdout.o)
 .text          0x0000000200008082        0x0 /home/zbtrs/ospp/rt-thread/bsp/toolchain/riscv64-linux-musleabi_for_x86_64-pc-linux-gnu/bin/../lib/gcc/riscv64-unknown-linux-musl/10.1.0/../../../../riscv64-unknown-linux-musl/lib/libc.a(vfprintf.o)
 .text.pop_arg  0x0000000200008082       0xcc /home/zbtrs/ospp/rt-thread/bsp/toolchain/riscv64-linux-musleabi_for_x86_64-pc-linux-gnu/bin/../lib/gcc/riscv64-unknown-linux-musl/10.1.0/../../../../riscv64-unknown-linux-musl/lib/libc.a(vfprintf.o)
 .text.pad.part.0
                0x000000020000814e       0x96 /home/zbtrs/ospp/rt-thread/bsp/toolchain/riscv64-linux-musleabi_for_x86_64-pc-linux-gnu/bin/../lib/gcc/riscv64-unknown-linux-musl/10.1.0/../../../../riscv64-unknown-linux-musl/lib/libc.a(vfprintf.o)
 .text.fmt_fp   0x00000002000081e4      0xeea /home/zbtrs/ospp/rt-thread/bsp/toolchain/riscv64-linux-musleabi_for_x86_64-pc-linux-gnu/bin/../lib/gcc/riscv64-unknown-linux-musl/10.1.0/../../../../riscv64-unknown-linux-musl/lib/libc.a(vfprintf.o)
 .text.printf_core
                0x00000002000090ce      0x8f2 /home/zbtrs/ospp/rt-thread/bsp/toolchain/riscv64-linux-musleabi_for_x86_64-pc-linux-gnu/bin/../lib/gcc/riscv64-unknown-linux-musl/10.1.0/../../../../riscv64-unknown-linux-musl/lib/libc.a(vfprintf.o)
 .text.vfprintf
                0x00000002000099c0      0x112 /home/zbtrs/ospp/rt-thread/bsp/toolchain/riscv64-linux-musleabi_for_x86_64-pc-linux-gnu/bin/../lib/gcc/riscv64-unknown-linux-musl/10.1.0/../../../../riscv64-unknown-linux-musl/lib/libc.a(vfprintf.o)
                0x00000002000099c0                vfprintf
 .text          0x0000000200009ad2        0x0 /home/zbtrs/ospp/rt-thread/bsp/toolchain/riscv64-linux-musleabi_for_x86_64-pc-linux-gnu/bin/../lib/gcc/riscv64-unknown-linux-musl/10.1.0/../../../../riscv64-unknown-linux-musl/lib/libc.a(vsnprintf.o)
 .text.sn_write
                0x0000000200009ad2       0x90 /home/zbtrs/ospp/rt-thread/bsp/toolchain/riscv64-linux-musleabi_for_x86_64-pc-linux-gnu/bin/../lib/gcc/riscv64-unknown-linux-musl/10.1.0/../../../../riscv64-unknown-linux-musl/lib/libc.a(vsnprintf.o)
 .text.vsnprintf
                0x0000000200009b62       0xa6 /home/zbtrs/ospp/rt-thread/bsp/toolchain/riscv64-linux-musleabi_for_x86_64-pc-linux-gnu/bin/../lib/gcc/riscv64-unknown-linux-musl/10.1.0/../../../../riscv64-unknown-linux-musl/lib/libc.a(vsnprintf.o)
                0x0000000200009b62                vsnprintf
 .text          0x0000000200009c08        0x0 /home/zbtrs/ospp/rt-thread/bsp/toolchain/riscv64-linux-musleabi_for_x86_64-pc-linux-gnu/bin/../lib/gcc/riscv64-unknown-linux-musl/10.1.0/../../../../riscv64-unknown-linux-musl/lib/libc.a(vsprintf.o)
 .text.vsprintf
                0x0000000200009c08       0x10 /home/zbtrs/ospp/rt-thread/bsp/toolchain/riscv64-linux-musleabi_for_x86_64-pc-linux-gnu/bin/../lib/gcc/riscv64-unknown-linux-musl/10.1.0/../../../../riscv64-unknown-linux-musl/lib/libc.a(vsprintf.o)
                0x0000000200009c08                vsprintf
 .text          0x0000000200009c18        0x0 /home/zbtrs/ospp/rt-thread/bsp/toolchain/riscv64-linux-musleabi_for_x86_64-pc-linux-gnu/bin/../lib/gcc/riscv64-unknown-linux-musl/10.1.0/../../../../riscv64-unknown-linux-musl/lib/libc.a(memcmp.o)
 .text.memcmp   0x0000000200009c18       0x24 /home/zbtrs/ospp/rt-thread/bsp/toolchain/riscv64-linux-musleabi_for_x86_64-pc-linux-gnu/bin/../lib/gcc/riscv64-unknown-linux-musl/10.1.0/../../../../riscv64-unknown-linux-musl/lib/libc.a(memcmp.o)
                0x0000000200009c18                memcmp
 .text          0x0000000200009c3c        0x0 /home/zbtrs/ospp/rt-thread/bsp/toolchain/riscv64-linux-musleabi_for_x86_64-pc-linux-gnu/bin/../lib/gcc/riscv64-unknown-linux-musl/10.1.0/../../../../riscv64-unknown-linux-musl/lib/libc.a(memcpy.o)
 .text.memcpy   0x0000000200009c3c      0x3f6 /home/zbtrs/ospp/rt-thread/bsp/toolchain/riscv64-linux-musleabi_for_x86_64-pc-linux-gnu/bin/../lib/gcc/riscv64-unknown-linux-musl/10.1.0/../../../../riscv64-unknown-linux-musl/lib/libc.a(memcpy.o)
                0x0000000200009c3c                memcpy
 .text          0x000000020000a032        0x0 /home/zbtrs/ospp/rt-thread/bsp/toolchain/riscv64-linux-musleabi_for_x86_64-pc-linux-gnu/bin/../lib/gcc/riscv64-unknown-linux-musl/10.1.0/../../../../riscv64-unknown-linux-musl/lib/libc.a(memmove.o)
 .text.memmove  0x000000020000a032      0x11a /home/zbtrs/ospp/rt-thread/bsp/toolchain/riscv64-linux-musleabi_for_x86_64-pc-linux-gnu/bin/../lib/gcc/riscv64-unknown-linux-musl/10.1.0/../../../../riscv64-unknown-linux-musl/lib/libc.a(memmove.o)
                0x000000020000a032                memmove
 .text          0x000000020000a14c        0x0 /home/zbtrs/ospp/rt-thread/bsp/toolchain/riscv64-linux-musleabi_for_x86_64-pc-linux-gnu/bin/../lib/gcc/riscv64-unknown-linux-musl/10.1.0/../../../../riscv64-unknown-linux-musl/lib/libc.a(memset.o)
 .text.memset   0x000000020000a14c       0xd0 /home/zbtrs/ospp/rt-thread/bsp/toolchain/riscv64-linux-musleabi_for_x86_64-pc-linux-gnu/bin/../lib/gcc/riscv64-unknown-linux-musl/10.1.0/../../../../riscv64-unknown-linux-musl/lib/libc.a(memset.o)
                0x000000020000a14c                memset
 .text          0x000000020000a21c        0x0 /home/zbtrs/ospp/rt-thread/bsp/toolchain/riscv64-linux-musleabi_for_x86_64-pc-linux-gnu/bin/../lib/gcc/riscv64-unknown-linux-musl/10.1.0/../../../../riscv64-unknown-linux-musl/lib/libc.a(strcasecmp.o)
 .text.strcasecmp
                0x000000020000a21c       0x64 /home/zbtrs/ospp/rt-thread/bsp/toolchain/riscv64-linux-musleabi_for_x86_64-pc-linux-gnu/bin/../lib/gcc/riscv64-unknown-linux-musl/10.1.0/../../../../riscv64-unknown-linux-musl/lib/libc.a(strcasecmp.o)
                0x000000020000a21c                strcasecmp
 .text.__strcasecmp_l
                0x000000020000a280        0x4 /home/zbtrs/ospp/rt-thread/bsp/toolchain/riscv64-linux-musleabi_for_x86_64-pc-linux-gnu/bin/../lib/gcc/riscv64-unknown-linux-musl/10.1.0/../../../../riscv64-unknown-linux-musl/lib/libc.a(strcasecmp.o)
                0x000000020000a280                strcasecmp_l
                0x000000020000a280                __strcasecmp_l
 .text          0x000000020000a284        0x0 /home/zbtrs/ospp/rt-thread/bsp/toolchain/riscv64-linux-musleabi_for_x86_64-pc-linux-gnu/bin/../lib/gcc/riscv64-unknown-linux-musl/10.1.0/../../../../riscv64-unknown-linux-musl/lib/libc.a(strcmp.o)
 .text.strcmp   0x000000020000a284       0x1e /home/zbtrs/ospp/rt-thread/bsp/toolchain/riscv64-linux-musleabi_for_x86_64-pc-linux-gnu/bin/../lib/gcc/riscv64-unknown-linux-musl/10.1.0/../../../../riscv64-unknown-linux-musl/lib/libc.a(strcmp.o)
                0x000000020000a284                strcmp
 .text          0x000000020000a2a2        0x0 /home/zbtrs/ospp/rt-thread/bsp/toolchain/riscv64-linux-musleabi_for_x86_64-pc-linux-gnu/bin/../lib/gcc/riscv64-unknown-linux-musl/10.1.0/../../../../riscv64-unknown-linux-musl/lib/libc.a(strdup.o)
 .text.strdup   0x000000020000a2a2       0x34 /home/zbtrs/ospp/rt-thread/bsp/toolchain/riscv64-linux-musleabi_for_x86_64-pc-linux-gnu/bin/../lib/gcc/riscv64-unknown-linux-musl/10.1.0/../../../../riscv64-unknown-linux-musl/lib/libc.a(strdup.o)
                0x000000020000a2a2                strdup
 .text          0x000000020000a2d6        0x0 /home/zbtrs/ospp/rt-thread/bsp/toolchain/riscv64-linux-musleabi_for_x86_64-pc-linux-gnu/bin/../lib/gcc/riscv64-unknown-linux-musl/10.1.0/../../../../riscv64-unknown-linux-musl/lib/libc.a(strlen.o)
 .text.strlen   0x000000020000a2d6       0x5e /home/zbtrs/ospp/rt-thread/bsp/toolchain/riscv64-linux-musleabi_for_x86_64-pc-linux-gnu/bin/../lib/gcc/riscv64-unknown-linux-musl/10.1.0/../../../../riscv64-unknown-linux-musl/lib/libc.a(strlen.o)
                0x000000020000a2d6                strlen
 .text          0x000000020000a334        0x0 /home/zbtrs/ospp/rt-thread/bsp/toolchain/riscv64-linux-musleabi_for_x86_64-pc-linux-gnu/bin/../lib/gcc/riscv64-unknown-linux-musl/10.1.0/../../../../riscv64-unknown-linux-musl/lib/libc.a(strncmp.o)
 .text.strncmp  0x000000020000a334       0x3e /home/zbtrs/ospp/rt-thread/bsp/toolchain/riscv64-linux-musleabi_for_x86_64-pc-linux-gnu/bin/../lib/gcc/riscv64-unknown-linux-musl/10.1.0/../../../../riscv64-unknown-linux-musl/lib/libc.a(strncmp.o)
                0x000000020000a334                strncmp
 .text          0x000000020000a372        0x0 /home/zbtrs/ospp/rt-thread/bsp/toolchain/riscv64-linux-musleabi_for_x86_64-pc-linux-gnu/bin/../lib/gcc/riscv64-unknown-linux-musl/10.1.0/../../../../riscv64-unknown-linux-musl/lib/libc.a(strncpy.o)
 .text.strncpy  0x000000020000a372       0x16 /home/zbtrs/ospp/rt-thread/bsp/toolchain/riscv64-linux-musleabi_for_x86_64-pc-linux-gnu/bin/../lib/gcc/riscv64-unknown-linux-musl/10.1.0/../../../../riscv64-unknown-linux-musl/lib/libc.a(strncpy.o)
                0x000000020000a372                strncpy
 .text          0x000000020000a388        0x0 /home/zbtrs/ospp/rt-thread/bsp/toolchain/riscv64-linux-musleabi_for_x86_64-pc-linux-gnu/bin/../lib/gcc/riscv64-unknown-linux-musl/10.1.0/../../../../riscv64-unknown-linux-musl/lib/libc.a(strnlen.o)
 .text.strnlen  0x000000020000a388       0x2e /home/zbtrs/ospp/rt-thread/bsp/toolchain/riscv64-linux-musleabi_for_x86_64-pc-linux-gnu/bin/../lib/gcc/riscv64-unknown-linux-musl/10.1.0/../../../../riscv64-unknown-linux-musl/lib/libc.a(strnlen.o)
                0x000000020000a388                strnlen
 .text          0x000000020000a3b6        0x0 /home/zbtrs/ospp/rt-thread/bsp/toolchain/riscv64-linux-musleabi_for_x86_64-pc-linux-gnu/bin/../lib/gcc/riscv64-unknown-linux-musl/10.1.0/../../../../riscv64-unknown-linux-musl/lib/libc.a(strstr.o)
 .text.twoway_strstr
                0x000000020000a3b6      0x282 /home/zbtrs/ospp/rt-thread/bsp/toolchain/riscv64-linux-musleabi_for_x86_64-pc-linux-gnu/bin/../lib/gcc/riscv64-unknown-linux-musl/10.1.0/../../../../riscv64-unknown-linux-musl/lib/libc.a(strstr.o)
 .text.strstr   0x000000020000a638      0x168 /home/zbtrs/ospp/rt-thread/bsp/toolchain/riscv64-linux-musleabi_for_x86_64-pc-linux-gnu/bin/../lib/gcc/riscv64-unknown-linux-musl/10.1.0/../../../../riscv64-unknown-linux-musl/lib/libc.a(strstr.o)
                0x000000020000a638                strstr
 .text          0x000000020000a7a0        0x0 /home/zbtrs/ospp/rt-thread/bsp/toolchain/riscv64-linux-musleabi_for_x86_64-pc-linux-gnu/bin/../lib/gcc/riscv64-unknown-linux-musl/10.1.0/../../../../riscv64-unknown-linux-musl/lib/libc.a(__lock.o)
 .text.__lock   0x000000020000a7a0      0x104 /home/zbtrs/ospp/rt-thread/bsp/toolchain/riscv64-linux-musleabi_for_x86_64-pc-linux-gnu/bin/../lib/gcc/riscv64-unknown-linux-musl/10.1.0/../../../../riscv64-unknown-linux-musl/lib/libc.a(__lock.o)
                0x000000020000a7a0                __lock
 .text.__unlock
                0x000000020000a8a4       0x78 /home/zbtrs/ospp/rt-thread/bsp/toolchain/riscv64-linux-musleabi_for_x86_64-pc-linux-gnu/bin/../lib/gcc/riscv64-unknown-linux-musl/10.1.0/../../../../riscv64-unknown-linux-musl/lib/libc.a(__lock.o)
                0x000000020000a8a4                __unlock
 .text          0x000000020000a91c        0x0 /home/zbtrs/ospp/rt-thread/bsp/toolchain/riscv64-linux-musleabi_for_x86_64-pc-linux-gnu/bin/../lib/gcc/riscv64-unknown-linux-musl/10.1.0/../../../../riscv64-unknown-linux-musl/lib/libc.a(__syscall_cp.o)
 .text.sccp     0x000000020000a91c        0x4 /home/zbtrs/ospp/rt-thread/bsp/toolchain/riscv64-linux-musleabi_for_x86_64-pc-linux-gnu/bin/../lib/gcc/riscv64-unknown-linux-musl/10.1.0/../../../../riscv64-unknown-linux-musl/lib/libc.a(__syscall_cp.o)
                0x000000020000a91c                __syscall_cp_c
 .text.__syscall_cp
                0x000000020000a920        0x4 /home/zbtrs/ospp/rt-thread/bsp/toolchain/riscv64-linux-musleabi_for_x86_64-pc-linux-gnu/bin/../lib/gcc/riscv64-unknown-linux-musl/10.1.0/../../../../riscv64-unknown-linux-musl/lib/libc.a(__syscall_cp.o)
                0x000000020000a920                __syscall_cp
 .text          0x000000020000a924        0x0 /home/zbtrs/ospp/rt-thread/bsp/toolchain/riscv64-linux-musleabi_for_x86_64-pc-linux-gnu/bin/../lib/gcc/riscv64-unknown-linux-musl/10.1.0/../../../../riscv64-unknown-linux-musl/lib/libc.a(__wait.o)
 .text.__wait   0x000000020000a924       0xc6 /home/zbtrs/ospp/rt-thread/bsp/toolchain/riscv64-linux-musleabi_for_x86_64-pc-linux-gnu/bin/../lib/gcc/riscv64-unknown-linux-musl/10.1.0/../../../../riscv64-unknown-linux-musl/lib/libc.a(__wait.o)
                0x000000020000a924                __wait
 .text          0x000000020000a9ea        0x0 /home/zbtrs/ospp/rt-thread/bsp/toolchain/riscv64-linux-musleabi_for_x86_64-pc-linux-gnu/bin/../lib/gcc/riscv64-unknown-linux-musl/10.1.0/../../../../riscv64-unknown-linux-musl/lib/libc.a(pthread_create.o)
 .text.__wake.constprop.0
                0x000000020000a9ea       0x54 /home/zbtrs/ospp/rt-thread/bsp/toolchain/riscv64-linux-musleabi_for_x86_64-pc-linux-gnu/bin/../lib/gcc/riscv64-unknown-linux-musl/10.1.0/../../../../riscv64-unknown-linux-musl/lib/libc.a(pthread_create.o)
 .text.dummy_0  0x000000020000aa3e        0x2 /home/zbtrs/ospp/rt-thread/bsp/toolchain/riscv64-linux-musleabi_for_x86_64-pc-linux-gnu/bin/../lib/gcc/riscv64-unknown-linux-musl/10.1.0/../../../../riscv64-unknown-linux-musl/lib/libc.a(pthread_create.o)
                0x000000020000aa3e                __membarrier_init
                0x000000020000aa3e                __acquire_ptc
                0x000000020000aa3e                __dl_thread_cleanup
                0x000000020000aa3e                __release_ptc
                0x000000020000aa3e                __pthread_tsd_run_dtors
                0x000000020000aa3e                __do_orphaned_stdio_locks
 .text.__tl_lock
                0x000000020000aa40       0x9e /home/zbtrs/ospp/rt-thread/bsp/toolchain/riscv64-linux-musleabi_for_x86_64-pc-linux-gnu/bin/../lib/gcc/riscv64-unknown-linux-musl/10.1.0/../../../../riscv64-unknown-linux-musl/lib/libc.a(pthread_create.o)
                0x000000020000aa40                __tl_lock
 .text.__tl_unlock
                0x000000020000aade       0x78 /home/zbtrs/ospp/rt-thread/bsp/toolchain/riscv64-linux-musleabi_for_x86_64-pc-linux-gnu/bin/../lib/gcc/riscv64-unknown-linux-musl/10.1.0/../../../../riscv64-unknown-linux-musl/lib/libc.a(pthread_create.o)
                0x000000020000aade                __tl_unlock
 .text.__tl_sync
                0x000000020000ab56       0x78 /home/zbtrs/ospp/rt-thread/bsp/toolchain/riscv64-linux-musleabi_for_x86_64-pc-linux-gnu/bin/../lib/gcc/riscv64-unknown-linux-musl/10.1.0/../../../../riscv64-unknown-linux-musl/lib/libc.a(pthread_create.o)
                0x000000020000ab56                __tl_sync
 .text.__pthread_exit
                0x000000020000abce      0x1bc /home/zbtrs/ospp/rt-thread/bsp/toolchain/riscv64-linux-musleabi_for_x86_64-pc-linux-gnu/bin/../lib/gcc/riscv64-unknown-linux-musl/10.1.0/../../../../riscv64-unknown-linux-musl/lib/libc.a(pthread_create.o)
                0x000000020000abce                pthread_exit
                0x000000020000abce                __pthread_exit
 .text.start    0x000000020000ad8a       0x96 /home/zbtrs/ospp/rt-thread/bsp/toolchain/riscv64-linux-musleabi_for_x86_64-pc-linux-gnu/bin/../lib/gcc/riscv64-unknown-linux-musl/10.1.0/../../../../riscv64-unknown-linux-musl/lib/libc.a(pthread_create.o)
 .text.start_c11
                0x000000020000ae20        0xe /home/zbtrs/ospp/rt-thread/bsp/toolchain/riscv64-linux-musleabi_for_x86_64-pc-linux-gnu/bin/../lib/gcc/riscv64-unknown-linux-musl/10.1.0/../../../../riscv64-unknown-linux-musl/lib/libc.a(pthread_create.o)
 .text.__do_cleanup_push
                0x000000020000ae2e        0xe /home/zbtrs/ospp/rt-thread/bsp/toolchain/riscv64-linux-musleabi_for_x86_64-pc-linux-gnu/bin/../lib/gcc/riscv64-unknown-linux-musl/10.1.0/../../../../riscv64-unknown-linux-musl/lib/libc.a(pthread_create.o)
                0x000000020000ae2e                __do_cleanup_push
 .text.__do_cleanup_pop
                0x000000020000ae3c        0xa /home/zbtrs/ospp/rt-thread/bsp/toolchain/riscv64-linux-musleabi_for_x86_64-pc-linux-gnu/bin/../lib/gcc/riscv64-unknown-linux-musl/10.1.0/../../../../riscv64-unknown-linux-musl/lib/libc.a(pthread_create.o)
                0x000000020000ae3c                __do_cleanup_pop
 .text.__pthread_create
                0x000000020000ae46      0x42a /home/zbtrs/ospp/rt-thread/bsp/toolchain/riscv64-linux-musleabi_for_x86_64-pc-linux-gnu/bin/../lib/gcc/riscv64-unknown-linux-musl/10.1.0/../../../../riscv64-unknown-linux-musl/lib/libc.a(pthread_create.o)
                0x000000020000ae46                pthread_create
                0x000000020000ae46                __pthread_create
 .text.__get_thread_map
                0x000000020000b270       0x78 /home/zbtrs/ospp/rt-thread/bsp/toolchain/riscv64-linux-musleabi_for_x86_64-pc-linux-gnu/bin/../lib/gcc/riscv64-unknown-linux-musl/10.1.0/../../../../riscv64-unknown-linux-musl/lib/libc.a(pthread_create.o)
                0x000000020000b270                __get_thread_map
 .text.__put_thread_map
                0x000000020000b2e8       0x22 /home/zbtrs/ospp/rt-thread/bsp/toolchain/riscv64-linux-musleabi_for_x86_64-pc-linux-gnu/bin/../lib/gcc/riscv64-unknown-linux-musl/10.1.0/../../../../riscv64-unknown-linux-musl/lib/libc.a(pthread_create.o)
                0x000000020000b2e8                __put_thread_map
 .text.__pthread_init_run
                0x000000020000b30a       0x5e /home/zbtrs/ospp/rt-thread/bsp/toolchain/riscv64-linux-musleabi_for_x86_64-pc-linux-gnu/bin/../lib/gcc/riscv64-unknown-linux-musl/10.1.0/../../../../riscv64-unknown-linux-musl/lib/libc.a(pthread_create.o)
                0x000000020000b30a                __pthread_init_run
 .text          0x000000020000b368        0x6 /home/zbtrs/ospp/rt-thread/bsp/toolchain/riscv64-linux-musleabi_for_x86_64-pc-linux-gnu/bin/../lib/gcc/riscv64-unknown-linux-musl/10.1.0/../../../../riscv64-unknown-linux-musl/lib/libc.a(__set_thread_area.o)
                0x000000020000b368                __set_thread_area
 .text          0x000000020000b36e       0x10 /home/zbtrs/ospp/rt-thread/bsp/toolchain/riscv64-linux-musleabi_for_x86_64-pc-linux-gnu/bin/../lib/gcc/riscv64-unknown-linux-musl/10.1.0/../../../../riscv64-unknown-linux-musl/lib/libc.a(__unmapself.o)
                0x000000020000b36e                __unmapself
 .text          0x000000020000b37e       0x32 /home/zbtrs/ospp/rt-thread/bsp/toolchain/riscv64-linux-musleabi_for_x86_64-pc-linux-gnu/bin/../lib/gcc/riscv64-unknown-linux-musl/10.1.0/../../../../riscv64-unknown-linux-musl/lib/libc.a(clone.o)
                0x000000020000b37e                __clone
 .text          0x000000020000b3b0        0x0 /home/zbtrs/ospp/rt-thread/bsp/toolchain/riscv64-linux-musleabi_for_x86_64-pc-linux-gnu/bin/../lib/gcc/riscv64-unknown-linux-musl/10.1.0/../../../../riscv64-unknown-linux-musl/lib/libc.a(vmlock.o)
 .text.__vm_wait
                0x000000020000b3b0       0x3e /home/zbtrs/ospp/rt-thread/bsp/toolchain/riscv64-linux-musleabi_for_x86_64-pc-linux-gnu/bin/../lib/gcc/riscv64-unknown-linux-musl/10.1.0/../../../../riscv64-unknown-linux-musl/lib/libc.a(vmlock.o)
                0x000000020000b3b0                __vm_wait
 .text.__vm_lock
                0x000000020000b3ee       0x1a /home/zbtrs/ospp/rt-thread/bsp/toolchain/riscv64-linux-musleabi_for_x86_64-pc-linux-gnu/bin/../lib/gcc/riscv64-unknown-linux-musl/10.1.0/../../../../riscv64-unknown-linux-musl/lib/libc.a(vmlock.o)
                0x000000020000b3ee                __vm_lock
 .text.__vm_unlock
                0x000000020000b408       0x84 /home/zbtrs/ospp/rt-thread/bsp/toolchain/riscv64-linux-musleabi_for_x86_64-pc-linux-gnu/bin/../lib/gcc/riscv64-unknown-linux-musl/10.1.0/../../../../riscv64-unknown-linux-musl/lib/libc.a(vmlock.o)
                0x000000020000b408                __vm_unlock
 .text          0x000000020000b48c        0x0 /home/zbtrs/ospp/rt-thread/bsp/toolchain/riscv64-linux-musleabi_for_x86_64-pc-linux-gnu/bin/../lib/gcc/riscv64-unknown-linux-musl/10.1.0/../../../../riscv64-unknown-linux-musl/lib/libc.a(time.o)
 .text.time     0x000000020000b48c       0x1e /home/zbtrs/ospp/rt-thread/bsp/toolchain/riscv64-linux-musleabi_for_x86_64-pc-linux-gnu/bin/../lib/gcc/riscv64-unknown-linux-musl/10.1.0/../../../../riscv64-unknown-linux-musl/lib/libc.a(time.o)
                0x000000020000b48c                time
 .text          0x000000020000b4aa        0x0 /home/zbtrs/ospp/rt-thread/bsp/toolchain/riscv64-linux-musleabi_for_x86_64-pc-linux-gnu/bin/../lib/gcc/riscv64-unknown-linux-musl/10.1.0/../../../../riscv64-unknown-linux-musl/lib/libc.a(close.o)
 .text.dummy    0x000000020000b4aa        0x2 /home/zbtrs/ospp/rt-thread/bsp/toolchain/riscv64-linux-musleabi_for_x86_64-pc-linux-gnu/bin/../lib/gcc/riscv64-unknown-linux-musl/10.1.0/../../../../riscv64-unknown-linux-musl/lib/libc.a(close.o)
                0x000000020000b4aa                __aio_close
 .text.close    0x000000020000b4ac       0x30 /home/zbtrs/ospp/rt-thread/bsp/toolchain/riscv64-linux-musleabi_for_x86_64-pc-linux-gnu/bin/../lib/gcc/riscv64-unknown-linux-musl/10.1.0/../../../../riscv64-unknown-linux-musl/lib/libc.a(close.o)
                0x000000020000b4ac                close
 .text          0x000000020000b4dc        0x0 /home/zbtrs/ospp/rt-thread/bsp/toolchain/riscv64-linux-musleabi_for_x86_64-pc-linux-gnu/bin/../lib/gcc/riscv64-unknown-linux-musl/10.1.0/../../../../riscv64-unknown-linux-musl/lib/libc.a(tolower.o)
 .text.tolower  0x000000020000b4dc       0x12 /home/zbtrs/ospp/rt-thread/bsp/toolchain/riscv64-linux-musleabi_for_x86_64-pc-linux-gnu/bin/../lib/gcc/riscv64-unknown-linux-musl/10.1.0/../../../../riscv64-unknown-linux-musl/lib/libc.a(tolower.o)
                0x000000020000b4dc                tolower
 .text.__tolower_l
                0x000000020000b4ee       0x12 /home/zbtrs/ospp/rt-thread/bsp/toolchain/riscv64-linux-musleabi_for_x86_64-pc-linux-gnu/bin/../lib/gcc/riscv64-unknown-linux-musl/10.1.0/../../../../riscv64-unknown-linux-musl/lib/libc.a(tolower.o)
                0x000000020000b4ee                __tolower_l
                0x000000020000b4ee                tolower_l
 .text          0x000000020000b500        0x0 /home/zbtrs/ospp/rt-thread/bsp/toolchain/riscv64-linux-musleabi_for_x86_64-pc-linux-gnu/bin/../lib/gcc/riscv64-unknown-linux-musl/10.1.0/../../../../riscv64-unknown-linux-musl/lib/libc.a(__environ.o)
 .text          0x000000020000b500        0x0 /home/zbtrs/ospp/rt-thread/bsp/toolchain/riscv64-linux-musleabi_for_x86_64-pc-linux-gnu/bin/../lib/gcc/riscv64-unknown-linux-musl/10.1.0/../../../../riscv64-unknown-linux-musl/lib/libc.a(__init_tls.o)
 .text.__init_tp
                0x000000020000b500       0x66 /home/zbtrs/ospp/rt-thread/bsp/toolchain/riscv64-linux-musleabi_for_x86_64-pc-linux-gnu/bin/../lib/gcc/riscv64-unknown-linux-musl/10.1.0/../../../../riscv64-unknown-linux-musl/lib/libc.a(__init_tls.o)
                0x000000020000b500                __init_tp
 .text.__copy_tls
                0x000000020000b566       0x8a /home/zbtrs/ospp/rt-thread/bsp/toolchain/riscv64-linux-musleabi_for_x86_64-pc-linux-gnu/bin/../lib/gcc/riscv64-unknown-linux-musl/10.1.0/../../../../riscv64-unknown-linux-musl/lib/libc.a(__init_tls.o)
                0x000000020000b566                __copy_tls
 .text.static_init_tls
                0x000000020000b5f0      0x15e /home/zbtrs/ospp/rt-thread/bsp/toolchain/riscv64-linux-musleabi_for_x86_64-pc-linux-gnu/bin/../lib/gcc/riscv64-unknown-linux-musl/10.1.0/../../../../riscv64-unknown-linux-musl/lib/libc.a(__init_tls.o)
                0x000000020000b5f0                __init_tls
 .text          0x000000020000b74e        0x0 /home/zbtrs/ospp/rt-thread/bsp/toolchain/riscv64-linux-musleabi_for_x86_64-pc-linux-gnu/bin/../lib/gcc/riscv64-unknown-linux-musl/10.1.0/../../../../riscv64-unknown-linux-musl/lib/libc.a(__stack_chk_fail.o)
 .text.__init_ssp
                0x000000020000b74e       0x48 /home/zbtrs/ospp/rt-thread/bsp/toolchain/riscv64-linux-musleabi_for_x86_64-pc-linux-gnu/bin/../lib/gcc/riscv64-unknown-linux-musl/10.1.0/../../../../riscv64-unknown-linux-musl/lib/libc.a(__stack_chk_fail.o)
                0x000000020000b74e                __init_ssp
 .text.__stack_chk_fail
                0x000000020000b796        0x6 /home/zbtrs/ospp/rt-thread/bsp/toolchain/riscv64-linux-musleabi_for_x86_64-pc-linux-gnu/bin/../lib/gcc/riscv64-unknown-linux-musl/10.1.0/../../../../riscv64-unknown-linux-musl/lib/libc.a(__stack_chk_fail.o)
                0x000000020000b796                __stack_chk_fail_local
                0x000000020000b796                __stack_chk_fail
 .text          0x000000020000b79c        0x0 /home/zbtrs/ospp/rt-thread/bsp/toolchain/riscv64-linux-musleabi_for_x86_64-pc-linux-gnu/bin/../lib/gcc/riscv64-unknown-linux-musl/10.1.0/../../../../riscv64-unknown-linux-musl/lib/libc.a(_Exit.o)
 .text._Exit    0x000000020000b79c       0x26 /home/zbtrs/ospp/rt-thread/bsp/toolchain/riscv64-linux-musleabi_for_x86_64-pc-linux-gnu/bin/../lib/gcc/riscv64-unknown-linux-musl/10.1.0/../../../../riscv64-unknown-linux-musl/lib/libc.a(_Exit.o)
                0x000000020000b79c                _Exit
 .text          0x000000020000b7c2        0x0 /home/zbtrs/ospp/rt-thread/bsp/toolchain/riscv64-linux-musleabi_for_x86_64-pc-linux-gnu/bin/../lib/gcc/riscv64-unknown-linux-musl/10.1.0/../../../../riscv64-unknown-linux-musl/lib/libc.a(expand_heap.o)
 .text.__expand_heap
                0x000000020000b7c2      0x162 /home/zbtrs/ospp/rt-thread/bsp/toolchain/riscv64-linux-musleabi_for_x86_64-pc-linux-gnu/bin/../lib/gcc/riscv64-unknown-linux-musl/10.1.0/../../../../riscv64-unknown-linux-musl/lib/libc.a(expand_heap.o)
                0x000000020000b7c2                __expand_heap
 .text          0x000000020000b924        0x0 /home/zbtrs/ospp/rt-thread/bsp/toolchain/riscv64-linux-musleabi_for_x86_64-pc-linux-gnu/bin/../lib/gcc/riscv64-unknown-linux-musl/10.1.0/../../../../riscv64-unknown-linux-musl/lib/libc.a(__fpclassifyl.o)
 .text.__fpclassifyl
                0x000000020000b924       0x2c /home/zbtrs/ospp/rt-thread/bsp/toolchain/riscv64-linux-musleabi_for_x86_64-pc-linux-gnu/bin/../lib/gcc/riscv64-unknown-linux-musl/10.1.0/../../../../riscv64-unknown-linux-musl/lib/libc.a(__fpclassifyl.o)
                0x000000020000b924                __fpclassifyl
 .text          0x000000020000b950        0x0 /home/zbtrs/ospp/rt-thread/bsp/toolchain/riscv64-linux-musleabi_for_x86_64-pc-linux-gnu/bin/../lib/gcc/riscv64-unknown-linux-musl/10.1.0/../../../../riscv64-unknown-linux-musl/lib/libc.a(__signbitl.o)
 .text.__signbitl
                0x000000020000b950        0x6 /home/zbtrs/ospp/rt-thread/bsp/toolchain/riscv64-linux-musleabi_for_x86_64-pc-linux-gnu/bin/../lib/gcc/riscv64-unknown-linux-musl/10.1.0/../../../../riscv64-unknown-linux-musl/lib/libc.a(__signbitl.o)
                0x000000020000b950                __signbitl
 .text          0x000000020000b956        0x0 /home/zbtrs/ospp/rt-thread/bsp/toolchain/riscv64-linux-musleabi_for_x86_64-pc-linux-gnu/bin/../lib/gcc/riscv64-unknown-linux-musl/10.1.0/../../../../riscv64-unknown-linux-musl/lib/libc.a(frexpl.o)
 .text.frexpl   0x000000020000b956       0xa2 /home/zbtrs/ospp/rt-thread/bsp/toolchain/riscv64-linux-musleabi_for_x86_64-pc-linux-gnu/bin/../lib/gcc/riscv64-unknown-linux-musl/10.1.0/../../../../riscv64-unknown-linux-musl/lib/libc.a(frexpl.o)
                0x000000020000b956                frexpl
 .text          0x000000020000b9f8        0x0 /home/zbtrs/ospp/rt-thread/bsp/toolchain/riscv64-linux-musleabi_for_x86_64-pc-linux-gnu/bin/../lib/gcc/riscv64-unknown-linux-musl/10.1.0/../../../../riscv64-unknown-linux-musl/lib/libc.a(getopt.o)
 .text.__getopt_msg
                0x000000020000b9f8       0xd6 /home/zbtrs/ospp/rt-thread/bsp/toolchain/riscv64-linux-musleabi_for_x86_64-pc-linux-gnu/bin/../lib/gcc/riscv64-unknown-linux-musl/10.1.0/../../../../riscv64-unknown-linux-musl/lib/libc.a(getopt.o)
                0x000000020000b9f8                __getopt_msg
 .text.getopt   0x000000020000bace      0x224 /home/zbtrs/ospp/rt-thread/bsp/toolchain/riscv64-linux-musleabi_for_x86_64-pc-linux-gnu/bin/../lib/gcc/riscv64-unknown-linux-musl/10.1.0/../../../../riscv64-unknown-linux-musl/lib/libc.a(getopt.o)
                0x000000020000bace                __posix_getopt
                0x000000020000bace                getopt
 .text          0x000000020000bcf2        0x0 /home/zbtrs/ospp/rt-thread/bsp/toolchain/riscv64-linux-musleabi_for_x86_64-pc-linux-gnu/bin/../lib/gcc/riscv64-unknown-linux-musl/10.1.0/../../../../riscv64-unknown-linux-musl/lib/libc.a(mprotect.o)
 .text.__mprotect
                0x000000020000bcf2       0x58 /home/zbtrs/ospp/rt-thread/bsp/toolchain/riscv64-linux-musleabi_for_x86_64-pc-linux-gnu/bin/../lib/gcc/riscv64-unknown-linux-musl/10.1.0/../../../../riscv64-unknown-linux-musl/lib/libc.a(mprotect.o)
                0x000000020000bcf2                __mprotect
                0x000000020000bcf2                mprotect
 .text          0x000000020000bd4a        0x0 /home/zbtrs/ospp/rt-thread/bsp/toolchain/riscv64-linux-musleabi_for_x86_64-pc-linux-gnu/bin/../lib/gcc/riscv64-unknown-linux-musl/10.1.0/../../../../riscv64-unknown-linux-musl/lib/libc.a(internal.o)
 .text          0x000000020000bd4a        0x0 /home/zbtrs/ospp/rt-thread/bsp/toolchain/riscv64-linux-musleabi_for_x86_64-pc-linux-gnu/bin/../lib/gcc/riscv64-unknown-linux-musl/10.1.0/../../../../riscv64-unknown-linux-musl/lib/libc.a(wctomb.o)
 .text.wctomb   0x000000020000bd4a       0x18 /home/zbtrs/ospp/rt-thread/bsp/toolchain/riscv64-linux-musleabi_for_x86_64-pc-linux-gnu/bin/../lib/gcc/riscv64-unknown-linux-musl/10.1.0/../../../../riscv64-unknown-linux-musl/lib/libc.a(wctomb.o)
                0x000000020000bd4a                wctomb
 .text          0x000000020000bd62        0x0 /home/zbtrs/ospp/rt-thread/bsp/toolchain/riscv64-linux-musleabi_for_x86_64-pc-linux-gnu/bin/../lib/gcc/riscv64-unknown-linux-musl/10.1.0/../../../../riscv64-unknown-linux-musl/lib/libc.a(block.o)
 .text.__block_all_sigs
                0x000000020000bd62       0x32 /home/zbtrs/ospp/rt-thread/bsp/toolchain/riscv64-linux-musleabi_for_x86_64-pc-linux-gnu/bin/../lib/gcc/riscv64-unknown-linux-musl/10.1.0/../../../../riscv64-unknown-linux-musl/lib/libc.a(block.o)
                0x000000020000bd62                __block_all_sigs
 .text.__block_app_sigs
                0x000000020000bd94       0x32 /home/zbtrs/ospp/rt-thread/bsp/toolchain/riscv64-linux-musleabi_for_x86_64-pc-linux-gnu/bin/../lib/gcc/riscv64-unknown-linux-musl/10.1.0/../../../../riscv64-unknown-linux-musl/lib/libc.a(block.o)
                0x000000020000bd94                __block_app_sigs
 .text.__restore_sigs
                0x000000020000bdc6       0x2c /home/zbtrs/ospp/rt-thread/bsp/toolchain/riscv64-linux-musleabi_for_x86_64-pc-linux-gnu/bin/../lib/gcc/riscv64-unknown-linux-musl/10.1.0/../../../../riscv64-unknown-linux-musl/lib/libc.a(block.o)
                0x000000020000bdc6                __restore_sigs
 .text          0x000000020000bdf2        0x0 /home/zbtrs/ospp/rt-thread/bsp/toolchain/riscv64-linux-musleabi_for_x86_64-pc-linux-gnu/bin/../lib/gcc/riscv64-unknown-linux-musl/10.1.0/../../../../riscv64-unknown-linux-musl/lib/libc.a(__lockfile.o)
 .text.__lockfile
                0x000000020000bdf2      0x10e /home/zbtrs/ospp/rt-thread/bsp/toolchain/riscv64-linux-musleabi_for_x86_64-pc-linux-gnu/bin/../lib/gcc/riscv64-unknown-linux-musl/10.1.0/../../../../riscv64-unknown-linux-musl/lib/libc.a(__lockfile.o)
                0x000000020000bdf2                __lockfile
 .text.__unlockfile
                0x000000020000bf00       0x64 /home/zbtrs/ospp/rt-thread/bsp/toolchain/riscv64-linux-musleabi_for_x86_64-pc-linux-gnu/bin/../lib/gcc/riscv64-unknown-linux-musl/10.1.0/../../../../riscv64-unknown-linux-musl/lib/libc.a(__lockfile.o)
                0x000000020000bf00                __unlockfile
 .text          0x000000020000bf64        0x0 /home/zbtrs/ospp/rt-thread/bsp/toolchain/riscv64-linux-musleabi_for_x86_64-pc-linux-gnu/bin/../lib/gcc/riscv64-unknown-linux-musl/10.1.0/../../../../riscv64-unknown-linux-musl/lib/libc.a(__overflow.o)
 .text.__overflow
                0x000000020000bf64       0x64 /home/zbtrs/ospp/rt-thread/bsp/toolchain/riscv64-linux-musleabi_for_x86_64-pc-linux-gnu/bin/../lib/gcc/riscv64-unknown-linux-musl/10.1.0/../../../../riscv64-unknown-linux-musl/lib/libc.a(__overflow.o)
                0x000000020000bf64                __overflow
 .text          0x000000020000bfc8        0x0 /home/zbtrs/ospp/rt-thread/bsp/toolchain/riscv64-linux-musleabi_for_x86_64-pc-linux-gnu/bin/../lib/gcc/riscv64-unknown-linux-musl/10.1.0/../../../../riscv64-unknown-linux-musl/lib/libc.a(__stdio_close.o)
 .text.dummy    0x000000020000bfc8        0x2 /home/zbtrs/ospp/rt-thread/bsp/toolchain/riscv64-linux-musleabi_for_x86_64-pc-linux-gnu/bin/../lib/gcc/riscv64-unknown-linux-musl/10.1.0/../../../../riscv64-unknown-linux-musl/lib/libc.a(__stdio_close.o)
 .text.__stdio_close
                0x000000020000bfca       0x3a /home/zbtrs/ospp/rt-thread/bsp/toolchain/riscv64-linux-musleabi_for_x86_64-pc-linux-gnu/bin/../lib/gcc/riscv64-unknown-linux-musl/10.1.0/../../../../riscv64-unknown-linux-musl/lib/libc.a(__stdio_close.o)
                0x000000020000bfca                __stdio_close
 .text          0x000000020000c004        0x0 /home/zbtrs/ospp/rt-thread/bsp/toolchain/riscv64-linux-musleabi_for_x86_64-pc-linux-gnu/bin/../lib/gcc/riscv64-unknown-linux-musl/10.1.0/../../../../riscv64-unknown-linux-musl/lib/libc.a(__stdio_seek.o)
 .text.__stdio_seek
                0x000000020000c004       0x4a /home/zbtrs/ospp/rt-thread/bsp/toolchain/riscv64-linux-musleabi_for_x86_64-pc-linux-gnu/bin/../lib/gcc/riscv64-unknown-linux-musl/10.1.0/../../../../riscv64-unknown-linux-musl/lib/libc.a(__stdio_seek.o)
                0x000000020000c004                __stdio_seek
 .text          0x000000020000c04e        0x0 /home/zbtrs/ospp/rt-thread/bsp/toolchain/riscv64-linux-musleabi_for_x86_64-pc-linux-gnu/bin/../lib/gcc/riscv64-unknown-linux-musl/10.1.0/../../../../riscv64-unknown-linux-musl/lib/libc.a(__stdio_write.o)
 .text.__stdio_write
                0x000000020000c04e       0xc4 /home/zbtrs/ospp/rt-thread/bsp/toolchain/riscv64-linux-musleabi_for_x86_64-pc-linux-gnu/bin/../lib/gcc/riscv64-unknown-linux-musl/10.1.0/../../../../riscv64-unknown-linux-musl/lib/libc.a(__stdio_write.o)
                0x000000020000c04e                __stdio_write
 .text          0x000000020000c112        0x0 /home/zbtrs/ospp/rt-thread/bsp/toolchain/riscv64-linux-musleabi_for_x86_64-pc-linux-gnu/bin/../lib/gcc/riscv64-unknown-linux-musl/10.1.0/../../../../riscv64-unknown-linux-musl/lib/libc.a(__stdout_write.o)
 .text.__stdout_write
                0x000000020000c112       0x62 /home/zbtrs/ospp/rt-thread/bsp/toolchain/riscv64-linux-musleabi_for_x86_64-pc-linux-gnu/bin/../lib/gcc/riscv64-unknown-linux-musl/10.1.0/../../../../riscv64-unknown-linux-musl/lib/libc.a(__stdout_write.o)
                0x000000020000c112                __stdout_write
 .text          0x000000020000c174        0x0 /home/zbtrs/ospp/rt-thread/bsp/toolchain/riscv64-linux-musleabi_for_x86_64-pc-linux-gnu/bin/../lib/gcc/riscv64-unknown-linux-musl/10.1.0/../../../../riscv64-unknown-linux-musl/lib/libc.a(__towrite.o)
 .text.__towrite
                0x000000020000c174       0x38 /home/zbtrs/ospp/rt-thread/bsp/toolchain/riscv64-linux-musleabi_for_x86_64-pc-linux-gnu/bin/../lib/gcc/riscv64-unknown-linux-musl/10.1.0/../../../../riscv64-unknown-linux-musl/lib/libc.a(__towrite.o)
                0x000000020000c174                __towrite
 .text.__towrite_needs_stdio_exit
                0x000000020000c1ac        0x2 /home/zbtrs/ospp/rt-thread/bsp/toolchain/riscv64-linux-musleabi_for_x86_64-pc-linux-gnu/bin/../lib/gcc/riscv64-unknown-linux-musl/10.1.0/../../../../riscv64-unknown-linux-musl/lib/libc.a(__towrite.o)
                0x000000020000c1ac                __towrite_needs_stdio_exit
 .text          0x000000020000c1ae        0x0 /home/zbtrs/ospp/rt-thread/bsp/toolchain/riscv64-linux-musleabi_for_x86_64-pc-linux-gnu/bin/../lib/gcc/riscv64-unknown-linux-musl/10.1.0/../../../../riscv64-unknown-linux-musl/lib/libc.a(fputc.o)
 .text.locking_putc
                0x000000020000c1ae       0xc4 /home/zbtrs/ospp/rt-thread/bsp/toolchain/riscv64-linux-musleabi_for_x86_64-pc-linux-gnu/bin/../lib/gcc/riscv64-unknown-linux-musl/10.1.0/../../../../riscv64-unknown-linux-musl/lib/libc.a(fputc.o)
 .text.fputc    0x000000020000c272       0x4e /home/zbtrs/ospp/rt-thread/bsp/toolchain/riscv64-linux-musleabi_for_x86_64-pc-linux-gnu/bin/../lib/gcc/riscv64-unknown-linux-musl/10.1.0/../../../../riscv64-unknown-linux-musl/lib/libc.a(fputc.o)
                0x000000020000c272                fputc
 .text          0x000000020000c2c0        0x0 /home/zbtrs/ospp/rt-thread/bsp/toolchain/riscv64-linux-musleabi_for_x86_64-pc-linux-gnu/bin/../lib/gcc/riscv64-unknown-linux-musl/10.1.0/../../../../riscv64-unknown-linux-musl/lib/libc.a(fputs.o)
 .text.fputs    0x000000020000c2c0       0x36 /home/zbtrs/ospp/rt-thread/bsp/toolchain/riscv64-linux-musleabi_for_x86_64-pc-linux-gnu/bin/../lib/gcc/riscv64-unknown-linux-musl/10.1.0/../../../../riscv64-unknown-linux-musl/lib/libc.a(fputs.o)
                0x000000020000c2c0                fputs_unlocked
                0x000000020000c2c0                fputs
 .text          0x000000020000c2f6        0x0 /home/zbtrs/ospp/rt-thread/bsp/toolchain/riscv64-linux-musleabi_for_x86_64-pc-linux-gnu/bin/../lib/gcc/riscv64-unknown-linux-musl/10.1.0/../../../../riscv64-unknown-linux-musl/lib/libc.a(fwrite.o)
 .text.__fwritex
                0x000000020000c2f6       0xac /home/zbtrs/ospp/rt-thread/bsp/toolchain/riscv64-linux-musleabi_for_x86_64-pc-linux-gnu/bin/../lib/gcc/riscv64-unknown-linux-musl/10.1.0/../../../../riscv64-unknown-linux-musl/lib/libc.a(fwrite.o)
                0x000000020000c2f6                __fwritex
 .text.fwrite   0x000000020000c3a2       0x76 /home/zbtrs/ospp/rt-thread/bsp/toolchain/riscv64-linux-musleabi_for_x86_64-pc-linux-gnu/bin/../lib/gcc/riscv64-unknown-linux-musl/10.1.0/../../../../riscv64-unknown-linux-musl/lib/libc.a(fwrite.o)
                0x000000020000c3a2                fwrite_unlocked
                0x000000020000c3a2                fwrite
 .text          0x000000020000c418        0x0 /home/zbtrs/ospp/rt-thread/bsp/toolchain/riscv64-linux-musleabi_for_x86_64-pc-linux-gnu/bin/../lib/gcc/riscv64-unknown-linux-musl/10.1.0/../../../../riscv64-unknown-linux-musl/lib/libc.a(ofl.o)
 .text.__ofl_lock
                0x000000020000c418       0x1e /home/zbtrs/ospp/rt-thread/bsp/toolchain/riscv64-linux-musleabi_for_x86_64-pc-linux-gnu/bin/../lib/gcc/riscv64-unknown-linux-musl/10.1.0/../../../../riscv64-unknown-linux-musl/lib/libc.a(ofl.o)
                0x000000020000c418                __ofl_lock
 .text.__ofl_unlock
                0x000000020000c436        0xc /home/zbtrs/ospp/rt-thread/bsp/toolchain/riscv64-linux-musleabi_for_x86_64-pc-linux-gnu/bin/../lib/gcc/riscv64-unknown-linux-musl/10.1.0/../../../../riscv64-unknown-linux-musl/lib/libc.a(ofl.o)
                0x000000020000c436                __ofl_unlock
 .text          0x000000020000c442        0x0 /home/zbtrs/ospp/rt-thread/bsp/toolchain/riscv64-linux-musleabi_for_x86_64-pc-linux-gnu/bin/../lib/gcc/riscv64-unknown-linux-musl/10.1.0/../../../../riscv64-unknown-linux-musl/lib/libc.a(putc.o)
 .text.locking_putc
                0x000000020000c442       0xc4 /home/zbtrs/ospp/rt-thread/bsp/toolchain/riscv64-linux-musleabi_for_x86_64-pc-linux-gnu/bin/../lib/gcc/riscv64-unknown-linux-musl/10.1.0/../../../../riscv64-unknown-linux-musl/lib/libc.a(putc.o)
 .text.putc     0x000000020000c506       0x4e /home/zbtrs/ospp/rt-thread/bsp/toolchain/riscv64-linux-musleabi_for_x86_64-pc-linux-gnu/bin/../lib/gcc/riscv64-unknown-linux-musl/10.1.0/../../../../riscv64-unknown-linux-musl/lib/libc.a(putc.o)
                0x000000020000c506                putc
                0x000000020000c506                _IO_putc
 .text          0x000000020000c554        0x0 /home/zbtrs/ospp/rt-thread/bsp/toolchain/riscv64-linux-musleabi_for_x86_64-pc-linux-gnu/bin/../lib/gcc/riscv64-unknown-linux-musl/10.1.0/../../../../riscv64-unknown-linux-musl/lib/libc.a(memchr.o)
 .text.memchr   0x000000020000c554       0x8e /home/zbtrs/ospp/rt-thread/bsp/toolchain/riscv64-linux-musleabi_for_x86_64-pc-linux-gnu/bin/../lib/gcc/riscv64-unknown-linux-musl/10.1.0/../../../../riscv64-unknown-linux-musl/lib/libc.a(memchr.o)
                0x000000020000c554                memchr
 .text          0x000000020000c5e2        0x0 /home/zbtrs/ospp/rt-thread/bsp/toolchain/riscv64-linux-musleabi_for_x86_64-pc-linux-gnu/bin/../lib/gcc/riscv64-unknown-linux-musl/10.1.0/../../../../riscv64-unknown-linux-musl/lib/libc.a(stpncpy.o)
 .text.__stpncpy
                0x000000020000c5e2       0x90 /home/zbtrs/ospp/rt-thread/bsp/toolchain/riscv64-linux-musleabi_for_x86_64-pc-linux-gnu/bin/../lib/gcc/riscv64-unknown-linux-musl/10.1.0/../../../../riscv64-unknown-linux-musl/lib/libc.a(stpncpy.o)
                0x000000020000c5e2                stpncpy
                0x000000020000c5e2                __stpncpy
 .text          0x000000020000c672        0x0 /home/zbtrs/ospp/rt-thread/bsp/toolchain/riscv64-linux-musleabi_for_x86_64-pc-linux-gnu/bin/../lib/gcc/riscv64-unknown-linux-musl/10.1.0/../../../../riscv64-unknown-linux-musl/lib/libc.a(strchr.o)
 .text.strchr   0x000000020000c672       0x22 /home/zbtrs/ospp/rt-thread/bsp/toolchain/riscv64-linux-musleabi_for_x86_64-pc-linux-gnu/bin/../lib/gcc/riscv64-unknown-linux-musl/10.1.0/../../../../riscv64-unknown-linux-musl/lib/libc.a(strchr.o)
                0x000000020000c672                strchr
 .text          0x000000020000c694        0x0 /home/zbtrs/ospp/rt-thread/bsp/toolchain/riscv64-linux-musleabi_for_x86_64-pc-linux-gnu/bin/../lib/gcc/riscv64-unknown-linux-musl/10.1.0/../../../../riscv64-unknown-linux-musl/lib/libc.a(strchrnul.o)
 .text.__strchrnul
                0x000000020000c694       0xb0 /home/zbtrs/ospp/rt-thread/bsp/toolchain/riscv64-linux-musleabi_for_x86_64-pc-linux-gnu/bin/../lib/gcc/riscv64-unknown-linux-musl/10.1.0/../../../../riscv64-unknown-linux-musl/lib/libc.a(strchrnul.o)
                0x000000020000c694                __strchrnul
                0x000000020000c694                strchrnul
 .text          0x000000020000c744        0x0 /home/zbtrs/ospp/rt-thread/bsp/toolchain/riscv64-linux-musleabi_for_x86_64-pc-linux-gnu/bin/../lib/gcc/riscv64-unknown-linux-musl/10.1.0/../../../../riscv64-unknown-linux-musl/lib/libc.a(default_attr.o)
 .text          0x000000020000c744        0x0 /home/zbtrs/ospp/rt-thread/bsp/toolchain/riscv64-linux-musleabi_for_x86_64-pc-linux-gnu/bin/../lib/gcc/riscv64-unknown-linux-musl/10.1.0/../../../../riscv64-unknown-linux-musl/lib/libc.a(clock_gettime.o)
 .text.__clock_gettime
                0x000000020000c744       0x70 /home/zbtrs/ospp/rt-thread/bsp/toolchain/riscv64-linux-musleabi_for_x86_64-pc-linux-gnu/bin/../lib/gcc/riscv64-unknown-linux-musl/10.1.0/../../../../riscv64-unknown-linux-musl/lib/libc.a(clock_gettime.o)
                0x000000020000c744                clock_gettime
                0x000000020000c744                __clock_gettime
 .text          0x000000020000c7b4        0x0 /home/zbtrs/ospp/rt-thread/bsp/toolchain/riscv64-linux-musleabi_for_x86_64-pc-linux-gnu/bin/../lib/gcc/riscv64-unknown-linux-musl/10.1.0/../../../../riscv64-unknown-linux-musl/lib/libc.a(wcrtomb.o)
 .text.wcrtomb  0x000000020000c7b4      0x102 /home/zbtrs/ospp/rt-thread/bsp/toolchain/riscv64-linux-musleabi_for_x86_64-pc-linux-gnu/bin/../lib/gcc/riscv64-unknown-linux-musl/10.1.0/../../../../riscv64-unknown-linux-musl/lib/libc.a(wcrtomb.o)
                0x000000020000c7b4                wcrtomb
 .text          0x000000020000c8b6        0x0 /home/zbtrs/ospp/rt-thread/bsp/toolchain/riscv64-linux-musleabi_for_x86_64-pc-linux-gnu/bin/../lib/gcc/riscv64-unknown-linux-musl/10.1.0/../../../../riscv64-unknown-linux-musl/lib/libc.a(__stdio_exit.o)
 .text.close_file
                0x000000020000c8b6       0x4e /home/zbtrs/ospp/rt-thread/bsp/toolchain/riscv64-linux-musleabi_for_x86_64-pc-linux-gnu/bin/../lib/gcc/riscv64-unknown-linux-musl/10.1.0/../../../../riscv64-unknown-linux-musl/lib/libc.a(__stdio_exit.o)
 .text.__stdio_exit
                0x000000020000c904       0x42 /home/zbtrs/ospp/rt-thread/bsp/toolchain/riscv64-linux-musleabi_for_x86_64-pc-linux-gnu/bin/../lib/gcc/riscv64-unknown-linux-musl/10.1.0/../../../../riscv64-unknown-linux-musl/lib/libc.a(__stdio_exit.o)
                0x000000020000c904                __stdio_exit
                0x000000020000c904                __stdio_exit_needed
 .text          0x000000020000c946      0xa1c /home/zbtrs/ospp/rt-thread/bsp/toolchain/riscv64-linux-musleabi_for_x86_64-pc-linux-gnu/bin/../lib/gcc/riscv64-unknown-linux-musl/10.1.0/libgcc.a(addtf3.o)
                0x000000020000c946                __addtf3
 .text          0x000000020000d362       0x8e /home/zbtrs/ospp/rt-thread/bsp/toolchain/riscv64-linux-musleabi_for_x86_64-pc-linux-gnu/bin/../lib/gcc/riscv64-unknown-linux-musl/10.1.0/libgcc.a(eqtf2.o)
                0x000000020000d362                __eqtf2
                0x000000020000d362                __netf2
 .text          0x000000020000d3f0      0x698 /home/zbtrs/ospp/rt-thread/bsp/toolchain/riscv64-linux-musleabi_for_x86_64-pc-linux-gnu/bin/../lib/gcc/riscv64-unknown-linux-musl/10.1.0/libgcc.a(multf3.o)
                0x000000020000d3f0                __multf3
 .text          0x000000020000da88      0xa6a /home/zbtrs/ospp/rt-thread/bsp/toolchain/riscv64-linux-musleabi_for_x86_64-pc-linux-gnu/bin/../lib/gcc/riscv64-unknown-linux-musl/10.1.0/libgcc.a(subtf3.o)
                0x000000020000da88                __subtf3
 .text          0x000000020000e4f2       0xa4 /home/zbtrs/ospp/rt-thread/bsp/toolchain/riscv64-linux-musleabi_for_x86_64-pc-linux-gnu/bin/../lib/gcc/riscv64-unknown-linux-musl/10.1.0/libgcc.a(fixtfsi.o)
                0x000000020000e4f2                __fixtfsi
 .text          0x000000020000e596       0x7e /home/zbtrs/ospp/rt-thread/bsp/toolchain/riscv64-linux-musleabi_for_x86_64-pc-linux-gnu/bin/../lib/gcc/riscv64-unknown-linux-musl/10.1.0/libgcc.a(fixunstfsi.o)
                0x000000020000e596                __fixunstfsi
 .text          0x000000020000e614       0x60 /home/zbtrs/ospp/rt-thread/bsp/toolchain/riscv64-linux-musleabi_for_x86_64-pc-linux-gnu/bin/../lib/gcc/riscv64-unknown-linux-musl/10.1.0/libgcc.a(floatsitf.o)
                0x000000020000e614                __floatsitf
 .text          0x000000020000e674       0x4e /home/zbtrs/ospp/rt-thread/bsp/toolchain/riscv64-linux-musleabi_for_x86_64-pc-linux-gnu/bin/../lib/gcc/riscv64-unknown-linux-musl/10.1.0/libgcc.a(floatunsitf.o)
                0x000000020000e674                __floatunsitf
 .text          0x000000020000e6c2       0xf0 /home/zbtrs/ospp/rt-thread/bsp/toolchain/riscv64-linux-musleabi_for_x86_64-pc-linux-gnu/bin/../lib/gcc/riscv64-unknown-linux-musl/10.1.0/libgcc.a(extenddftf2.o)
                0x000000020000e6c2                __extenddftf2
 .text          0x000000020000e7b2       0x48 /home/zbtrs/ospp/rt-thread/bsp/toolchain/riscv64-linux-musleabi_for_x86_64-pc-linux-gnu/bin/../lib/gcc/riscv64-unknown-linux-musl/10.1.0/libgcc.a(_clzsi2.o)
                0x000000020000e7b2                __clzdi2
 .text          0x000000020000e7fa        0x0 /home/zbtrs/ospp/rt-thread/bsp/toolchain/riscv64-linux-musleabi_for_x86_64-pc-linux-gnu/bin/../lib/gcc/riscv64-unknown-linux-musl/10.1.0/libgcc.a(_clz.o)
 .text          0x000000020000e7fa        0x0 /home/zbtrs/ospp/rt-thread/bsp/toolchain/riscv64-linux-musleabi_for_x86_64-pc-linux-gnu/bin/../lib/gcc/riscv64-unknown-linux-musl/10.1.0/crtend.o
 .text          0x000000020000e7fa        0x0 /home/zbtrs/ospp/rt-thread/bsp/toolchain/riscv64-linux-musleabi_for_x86_64-pc-linux-gnu/bin/../lib/gcc/riscv64-unknown-linux-musl/10.1.0/crtn.o
 *(.init)
 *(.fini)
 *crtbegin.o(.ctors)
 *crtbegin?.o(.ctors)
 *(EXCLUDE_FILE(*crtend.o *crtend?.o) .ctors)
 *(SORT_BY_NAME(.ctors.*))
 *(.ctors)
 *crtbegin.o(.dtors)
 *crtbegin?.o(.dtors)
 *(EXCLUDE_FILE(*crtend.o *crtend?.o) .dtors)
 *(SORT_BY_NAME(.dtors.*))
 *(.dtors)
 *(.rodata*)
 *fill*         0x000000020000e7fa        0x6 
 .rodata        0x000000020000e800        0xb /home/zbtrs/ospp/userapps/sdk/rt-thread/lib/risc-v/rv64gc//librtthread.a(rt_completion.o)
 *fill*         0x000000020000e80b        0x5 
 .rodata        0x000000020000e810      0x109 /home/zbtrs/ospp/userapps/sdk/rt-thread/lib/risc-v/rv64gc//librtthread.a(rt_net.o)
 *fill*         0x000000020000e919        0x7 
 .rodata        0x000000020000e920       0x3a /home/zbtrs/ospp/userapps/sdk/rt-thread/lib/risc-v/rv64gc//librtthread.a(rt_timer.o)
 *fill*         0x000000020000e95a        0x6 
 .rodata        0x000000020000e960       0x48 /home/zbtrs/ospp/userapps/sdk/rt-thread/lib/risc-v/rv64gc//librtthread.a(stub.o)
 .rodata.__init_libc.str1.8
                0x000000020000e9a8        0x1 /home/zbtrs/ospp/rt-thread/bsp/toolchain/riscv64-linux-musleabi_for_x86_64-pc-linux-gnu/bin/../lib/gcc/riscv64-unknown-linux-musl/10.1.0/../../../../riscv64-unknown-linux-musl/lib/libc.a(__libc_start_main.o)
 *fill*         0x000000020000e9a9        0x7 
 .rodata.errid  0x000000020000e9b0       0x59 /home/zbtrs/ospp/rt-thread/bsp/toolchain/riscv64-linux-musleabi_for_x86_64-pc-linux-gnu/bin/../lib/gcc/riscv64-unknown-linux-musl/10.1.0/../../../../riscv64-unknown-linux-musl/lib/libc.a(strerror.o)
 *fill*         0x000000020000ea09        0x7 
 .rodata.errmsg
                0x000000020000ea10      0x71f /home/zbtrs/ospp/rt-thread/bsp/toolchain/riscv64-linux-musleabi_for_x86_64-pc-linux-gnu/bin/../lib/gcc/riscv64-unknown-linux-musl/10.1.0/../../../../riscv64-unknown-linux-musl/lib/libc.a(strerror.o)
 *fill*         0x000000020000f12f        0x1 
 .rodata.syscall_timerfd_create.str1.8
                0x000000020000f130       0x1d /home/zbtrs/ospp/rt-thread/bsp/toolchain/riscv64-linux-musleabi_for_x86_64-pc-linux-gnu/bin/../lib/gcc/riscv64-unknown-linux-musl/10.1.0/../../../../riscv64-unknown-linux-musl/lib/libc.a(syscall.o)
 *fill*         0x000000020000f14d        0x3 
 .rodata.__FUNCTION__.0
                0x000000020000f150       0x18 /home/zbtrs/ospp/rt-thread/bsp/toolchain/riscv64-linux-musleabi_for_x86_64-pc-linux-gnu/bin/../lib/gcc/riscv64-unknown-linux-musl/10.1.0/../../../../riscv64-unknown-linux-musl/lib/libc.a(syscall.o)
 .rodata.__FUNCTION__.1
                0x000000020000f168        0xe /home/zbtrs/ospp/rt-thread/bsp/toolchain/riscv64-linux-musleabi_for_x86_64-pc-linux-gnu/bin/../lib/gcc/riscv64-unknown-linux-musl/10.1.0/../../../../riscv64-unknown-linux-musl/lib/libc.a(syscall.o)
 *fill*         0x000000020000f176        0x2 
 .rodata.__FUNCTION__.10
                0x000000020000f178        0xe /home/zbtrs/ospp/rt-thread/bsp/toolchain/riscv64-linux-musleabi_for_x86_64-pc-linux-gnu/bin/../lib/gcc/riscv64-unknown-linux-musl/10.1.0/../../../../riscv64-unknown-linux-musl/lib/libc.a(syscall.o)
 *fill*         0x000000020000f186        0x2 
 .rodata.__FUNCTION__.100
                0x000000020000f188       0x14 /home/zbtrs/ospp/rt-thread/bsp/toolchain/riscv64-linux-musleabi_for_x86_64-pc-linux-gnu/bin/../lib/gcc/riscv64-unknown-linux-musl/10.1.0/../../../../riscv64-unknown-linux-musl/lib/libc.a(syscall.o)
 *fill*         0x000000020000f19c        0x4 
 .rodata.__FUNCTION__.101
                0x000000020000f1a0       0x11 /home/zbtrs/ospp/rt-thread/bsp/toolchain/riscv64-linux-musleabi_for_x86_64-pc-linux-gnu/bin/../lib/gcc/riscv64-unknown-linux-musl/10.1.0/../../../../riscv64-unknown-linux-musl/lib/libc.a(syscall.o)
 *fill*         0x000000020000f1b1        0x7 
 .rodata.__FUNCTION__.102
                0x000000020000f1b8       0x14 /home/zbtrs/ospp/rt-thread/bsp/toolchain/riscv64-linux-musleabi_for_x86_64-pc-linux-gnu/bin/../lib/gcc/riscv64-unknown-linux-musl/10.1.0/../../../../riscv64-unknown-linux-musl/lib/libc.a(syscall.o)
 *fill*         0x000000020000f1cc        0x4 
 .rodata.__FUNCTION__.103
                0x000000020000f1d0       0x14 /home/zbtrs/ospp/rt-thread/bsp/toolchain/riscv64-linux-musleabi_for_x86_64-pc-linux-gnu/bin/../lib/gcc/riscv64-unknown-linux-musl/10.1.0/../../../../riscv64-unknown-linux-musl/lib/libc.a(syscall.o)
 *fill*         0x000000020000f1e4        0x4 
 .rodata.__FUNCTION__.104
                0x000000020000f1e8       0x14 /home/zbtrs/ospp/rt-thread/bsp/toolchain/riscv64-linux-musleabi_for_x86_64-pc-linux-gnu/bin/../lib/gcc/riscv64-unknown-linux-musl/10.1.0/../../../../riscv64-unknown-linux-musl/lib/libc.a(syscall.o)
 *fill*         0x000000020000f1fc        0x4 
 .rodata.__FUNCTION__.105
                0x000000020000f200       0x14 /home/zbtrs/ospp/rt-thread/bsp/toolchain/riscv64-linux-musleabi_for_x86_64-pc-linux-gnu/bin/../lib/gcc/riscv64-unknown-linux-musl/10.1.0/../../../../riscv64-unknown-linux-musl/lib/libc.a(syscall.o)
 *fill*         0x000000020000f214        0x4 
 .rodata.__FUNCTION__.106
                0x000000020000f218       0x10 /home/zbtrs/ospp/rt-thread/bsp/toolchain/riscv64-linux-musleabi_for_x86_64-pc-linux-gnu/bin/../lib/gcc/riscv64-unknown-linux-musl/10.1.0/../../../../riscv64-unknown-linux-musl/lib/libc.a(syscall.o)
 .rodata.__FUNCTION__.107
                0x000000020000f228       0x11 /home/zbtrs/ospp/rt-thread/bsp/toolchain/riscv64-linux-musleabi_for_x86_64-pc-linux-gnu/bin/../lib/gcc/riscv64-unknown-linux-musl/10.1.0/../../../../riscv64-unknown-linux-musl/lib/libc.a(syscall.o)
 *fill*         0x000000020000f239        0x7 
 .rodata.__FUNCTION__.108
                0x000000020000f240       0x11 /home/zbtrs/ospp/rt-thread/bsp/toolchain/riscv64-linux-musleabi_for_x86_64-pc-linux-gnu/bin/../lib/gcc/riscv64-unknown-linux-musl/10.1.0/../../../../riscv64-unknown-linux-musl/lib/libc.a(syscall.o)
 *fill*         0x000000020000f251        0x7 
 .rodata.__FUNCTION__.109
                0x000000020000f258       0x13 /home/zbtrs/ospp/rt-thread/bsp/toolchain/riscv64-linux-musleabi_for_x86_64-pc-linux-gnu/bin/../lib/gcc/riscv64-unknown-linux-musl/10.1.0/../../../../riscv64-unknown-linux-musl/lib/libc.a(syscall.o)
 *fill*         0x000000020000f26b        0x5 
 .rodata.__FUNCTION__.11
                0x000000020000f270        0xf /home/zbtrs/ospp/rt-thread/bsp/toolchain/riscv64-linux-musleabi_for_x86_64-pc-linux-gnu/bin/../lib/gcc/riscv64-unknown-linux-musl/10.1.0/../../../../riscv64-unknown-linux-musl/lib/libc.a(syscall.o)
 *fill*         0x000000020000f27f        0x1 
 .rodata.__FUNCTION__.110
                0x000000020000f280       0x13 /home/zbtrs/ospp/rt-thread/bsp/toolchain/riscv64-linux-musleabi_for_x86_64-pc-linux-gnu/bin/../lib/gcc/riscv64-unknown-linux-musl/10.1.0/../../../../riscv64-unknown-linux-musl/lib/libc.a(syscall.o)
 *fill*         0x000000020000f293        0x5 
 .rodata.__FUNCTION__.111
                0x000000020000f298       0x13 /home/zbtrs/ospp/rt-thread/bsp/toolchain/riscv64-linux-musleabi_for_x86_64-pc-linux-gnu/bin/../lib/gcc/riscv64-unknown-linux-musl/10.1.0/../../../../riscv64-unknown-linux-musl/lib/libc.a(syscall.o)
 *fill*         0x000000020000f2ab        0x5 
 .rodata.__FUNCTION__.112
                0x000000020000f2b0       0x10 /home/zbtrs/ospp/rt-thread/bsp/toolchain/riscv64-linux-musleabi_for_x86_64-pc-linux-gnu/bin/../lib/gcc/riscv64-unknown-linux-musl/10.1.0/../../../../riscv64-unknown-linux-musl/lib/libc.a(syscall.o)
 .rodata.__FUNCTION__.113
                0x000000020000f2c0       0x12 /home/zbtrs/ospp/rt-thread/bsp/toolchain/riscv64-linux-musleabi_for_x86_64-pc-linux-gnu/bin/../lib/gcc/riscv64-unknown-linux-musl/10.1.0/../../../../riscv64-unknown-linux-musl/lib/libc.a(syscall.o)
 *fill*         0x000000020000f2d2        0x6 
 .rodata.__FUNCTION__.114
                0x000000020000f2d8       0x11 /home/zbtrs/ospp/rt-thread/bsp/toolchain/riscv64-linux-musleabi_for_x86_64-pc-linux-gnu/bin/../lib/gcc/riscv64-unknown-linux-musl/10.1.0/../../../../riscv64-unknown-linux-musl/lib/libc.a(syscall.o)
 *fill*         0x000000020000f2e9        0x7 
 .rodata.__FUNCTION__.115
                0x000000020000f2f0       0x12 /home/zbtrs/ospp/rt-thread/bsp/toolchain/riscv64-linux-musleabi_for_x86_64-pc-linux-gnu/bin/../lib/gcc/riscv64-unknown-linux-musl/10.1.0/../../../../riscv64-unknown-linux-musl/lib/libc.a(syscall.o)
 *fill*         0x000000020000f302        0x6 
 .rodata.__FUNCTION__.116
                0x000000020000f308       0x12 /home/zbtrs/ospp/rt-thread/bsp/toolchain/riscv64-linux-musleabi_for_x86_64-pc-linux-gnu/bin/../lib/gcc/riscv64-unknown-linux-musl/10.1.0/../../../../riscv64-unknown-linux-musl/lib/libc.a(syscall.o)
 *fill*         0x000000020000f31a        0x6 
 .rodata.__FUNCTION__.117
                0x000000020000f320       0x11 /home/zbtrs/ospp/rt-thread/bsp/toolchain/riscv64-linux-musleabi_for_x86_64-pc-linux-gnu/bin/../lib/gcc/riscv64-unknown-linux-musl/10.1.0/../../../../riscv64-unknown-linux-musl/lib/libc.a(syscall.o)
 *fill*         0x000000020000f331        0x7 
 .rodata.__FUNCTION__.118
                0x000000020000f338       0x12 /home/zbtrs/ospp/rt-thread/bsp/toolchain/riscv64-linux-musleabi_for_x86_64-pc-linux-gnu/bin/../lib/gcc/riscv64-unknown-linux-musl/10.1.0/../../../../riscv64-unknown-linux-musl/lib/libc.a(syscall.o)
 *fill*         0x000000020000f34a        0x6 
 .rodata.__FUNCTION__.119
                0x000000020000f350       0x12 /home/zbtrs/ospp/rt-thread/bsp/toolchain/riscv64-linux-musleabi_for_x86_64-pc-linux-gnu/bin/../lib/gcc/riscv64-unknown-linux-musl/10.1.0/../../../../riscv64-unknown-linux-musl/lib/libc.a(syscall.o)
 *fill*         0x000000020000f362        0x6 
 .rodata.__FUNCTION__.12
                0x000000020000f368        0xf /home/zbtrs/ospp/rt-thread/bsp/toolchain/riscv64-linux-musleabi_for_x86_64-pc-linux-gnu/bin/../lib/gcc/riscv64-unknown-linux-musl/10.1.0/../../../../riscv64-unknown-linux-musl/lib/libc.a(syscall.o)
 *fill*         0x000000020000f377        0x1 
 .rodata.__FUNCTION__.120
                0x000000020000f378       0x12 /home/zbtrs/ospp/rt-thread/bsp/toolchain/riscv64-linux-musleabi_for_x86_64-pc-linux-gnu/bin/../lib/gcc/riscv64-unknown-linux-musl/10.1.0/../../../../riscv64-unknown-linux-musl/lib/libc.a(syscall.o)
 *fill*         0x000000020000f38a        0x6 
 .rodata.__FUNCTION__.121
                0x000000020000f390       0x13 /home/zbtrs/ospp/rt-thread/bsp/toolchain/riscv64-linux-musleabi_for_x86_64-pc-linux-gnu/bin/../lib/gcc/riscv64-unknown-linux-musl/10.1.0/../../../../riscv64-unknown-linux-musl/lib/libc.a(syscall.o)
 *fill*         0x000000020000f3a3        0x5 
 .rodata.__FUNCTION__.122
                0x000000020000f3a8       0x13 /home/zbtrs/ospp/rt-thread/bsp/toolchain/riscv64-linux-musleabi_for_x86_64-pc-linux-gnu/bin/../lib/gcc/riscv64-unknown-linux-musl/10.1.0/../../../../riscv64-unknown-linux-musl/lib/libc.a(syscall.o)
 *fill*         0x000000020000f3bb        0x5 
 .rodata.__FUNCTION__.123
                0x000000020000f3c0       0x14 /home/zbtrs/ospp/rt-thread/bsp/toolchain/riscv64-linux-musleabi_for_x86_64-pc-linux-gnu/bin/../lib/gcc/riscv64-unknown-linux-musl/10.1.0/../../../../riscv64-unknown-linux-musl/lib/libc.a(syscall.o)
 *fill*         0x000000020000f3d4        0x4 
 .rodata.__FUNCTION__.124
                0x000000020000f3d8       0x15 /home/zbtrs/ospp/rt-thread/bsp/toolchain/riscv64-linux-musleabi_for_x86_64-pc-linux-gnu/bin/../lib/gcc/riscv64-unknown-linux-musl/10.1.0/../../../../riscv64-unknown-linux-musl/lib/libc.a(syscall.o)
 *fill*         0x000000020000f3ed        0x3 
 .rodata.__FUNCTION__.125
                0x000000020000f3f0       0x15 /home/zbtrs/ospp/rt-thread/bsp/toolchain/riscv64-linux-musleabi_for_x86_64-pc-linux-gnu/bin/../lib/gcc/riscv64-unknown-linux-musl/10.1.0/../../../../riscv64-unknown-linux-musl/lib/libc.a(syscall.o)
 *fill*         0x000000020000f405        0x3 
 .rodata.__FUNCTION__.126
                0x000000020000f408       0x13 /home/zbtrs/ospp/rt-thread/bsp/toolchain/riscv64-linux-musleabi_for_x86_64-pc-linux-gnu/bin/../lib/gcc/riscv64-unknown-linux-musl/10.1.0/../../../../riscv64-unknown-linux-musl/lib/libc.a(syscall.o)
 *fill*         0x000000020000f41b        0x5 
 .rodata.__FUNCTION__.127
                0x000000020000f420       0x11 /home/zbtrs/ospp/rt-thread/bsp/toolchain/riscv64-linux-musleabi_for_x86_64-pc-linux-gnu/bin/../lib/gcc/riscv64-unknown-linux-musl/10.1.0/../../../../riscv64-unknown-linux-musl/lib/libc.a(syscall.o)
 *fill*         0x000000020000f431        0x7 
 .rodata.__FUNCTION__.128
                0x000000020000f438       0x13 /home/zbtrs/ospp/rt-thread/bsp/toolchain/riscv64-linux-musleabi_for_x86_64-pc-linux-gnu/bin/../lib/gcc/riscv64-unknown-linux-musl/10.1.0/../../../../riscv64-unknown-linux-musl/lib/libc.a(syscall.o)
 *fill*         0x000000020000f44b        0x5 
 .rodata.__FUNCTION__.129
                0x000000020000f450       0x15 /home/zbtrs/ospp/rt-thread/bsp/toolchain/riscv64-linux-musleabi_for_x86_64-pc-linux-gnu/bin/../lib/gcc/riscv64-unknown-linux-musl/10.1.0/../../../../riscv64-unknown-linux-musl/lib/libc.a(syscall.o)
 *fill*         0x000000020000f465        0x3 
 .rodata.__FUNCTION__.13
                0x000000020000f468       0x10 /home/zbtrs/ospp/rt-thread/bsp/toolchain/riscv64-linux-musleabi_for_x86_64-pc-linux-gnu/bin/../lib/gcc/riscv64-unknown-linux-musl/10.1.0/../../../../riscv64-unknown-linux-musl/lib/libc.a(syscall.o)
 .rodata.__FUNCTION__.130
                0x000000020000f478       0x12 /home/zbtrs/ospp/rt-thread/bsp/toolchain/riscv64-linux-musleabi_for_x86_64-pc-linux-gnu/bin/../lib/gcc/riscv64-unknown-linux-musl/10.1.0/../../../../riscv64-unknown-linux-musl/lib/libc.a(syscall.o)
 *fill*         0x000000020000f48a        0x6 
 .rodata.__FUNCTION__.131
                0x000000020000f490       0x12 /home/zbtrs/ospp/rt-thread/bsp/toolchain/riscv64-linux-musleabi_for_x86_64-pc-linux-gnu/bin/../lib/gcc/riscv64-unknown-linux-musl/10.1.0/../../../../riscv64-unknown-linux-musl/lib/libc.a(syscall.o)
 *fill*         0x000000020000f4a2        0x6 
 .rodata.__FUNCTION__.132
                0x000000020000f4a8       0x17 /home/zbtrs/ospp/rt-thread/bsp/toolchain/riscv64-linux-musleabi_for_x86_64-pc-linux-gnu/bin/../lib/gcc/riscv64-unknown-linux-musl/10.1.0/../../../../riscv64-unknown-linux-musl/lib/libc.a(syscall.o)
 *fill*         0x000000020000f4bf        0x1 
 .rodata.__FUNCTION__.133
                0x000000020000f4c0       0x15 /home/zbtrs/ospp/rt-thread/bsp/toolchain/riscv64-linux-musleabi_for_x86_64-pc-linux-gnu/bin/../lib/gcc/riscv64-unknown-linux-musl/10.1.0/../../../../riscv64-unknown-linux-musl/lib/libc.a(syscall.o)
 *fill*         0x000000020000f4d5        0x3 
 .rodata.__FUNCTION__.134
                0x000000020000f4d8       0x12 /home/zbtrs/ospp/rt-thread/bsp/toolchain/riscv64-linux-musleabi_for_x86_64-pc-linux-gnu/bin/../lib/gcc/riscv64-unknown-linux-musl/10.1.0/../../../../riscv64-unknown-linux-musl/lib/libc.a(syscall.o)
 *fill*         0x000000020000f4ea        0x6 
 .rodata.__FUNCTION__.135
                0x000000020000f4f0       0x13 /home/zbtrs/ospp/rt-thread/bsp/toolchain/riscv64-linux-musleabi_for_x86_64-pc-linux-gnu/bin/../lib/gcc/riscv64-unknown-linux-musl/10.1.0/../../../../riscv64-unknown-linux-musl/lib/libc.a(syscall.o)
 *fill*         0x000000020000f503        0x5 
 .rodata.__FUNCTION__.136
                0x000000020000f508       0x19 /home/zbtrs/ospp/rt-thread/bsp/toolchain/riscv64-linux-musleabi_for_x86_64-pc-linux-gnu/bin/../lib/gcc/riscv64-unknown-linux-musl/10.1.0/../../../../riscv64-unknown-linux-musl/lib/libc.a(syscall.o)
 *fill*         0x000000020000f521        0x7 
 .rodata.__FUNCTION__.137
                0x000000020000f528        0xf /home/zbtrs/ospp/rt-thread/bsp/toolchain/riscv64-linux-musleabi_for_x86_64-pc-linux-gnu/bin/../lib/gcc/riscv64-unknown-linux-musl/10.1.0/../../../../riscv64-unknown-linux-musl/lib/libc.a(syscall.o)
 *fill*         0x000000020000f537        0x1 
 .rodata.__FUNCTION__.138
                0x000000020000f538        0xf /home/zbtrs/ospp/rt-thread/bsp/toolchain/riscv64-linux-musleabi_for_x86_64-pc-linux-gnu/bin/../lib/gcc/riscv64-unknown-linux-musl/10.1.0/../../../../riscv64-unknown-linux-musl/lib/libc.a(syscall.o)
 *fill*         0x000000020000f547        0x1 
 .rodata.__FUNCTION__.139
                0x000000020000f548       0x19 /home/zbtrs/ospp/rt-thread/bsp/toolchain/riscv64-linux-musleabi_for_x86_64-pc-linux-gnu/bin/../lib/gcc/riscv64-unknown-linux-musl/10.1.0/../../../../riscv64-unknown-linux-musl/lib/libc.a(syscall.o)
 *fill*         0x000000020000f561        0x7 
 .rodata.__FUNCTION__.14
                0x000000020000f568       0x10 /home/zbtrs/ospp/rt-thread/bsp/toolchain/riscv64-linux-musleabi_for_x86_64-pc-linux-gnu/bin/../lib/gcc/riscv64-unknown-linux-musl/10.1.0/../../../../riscv64-unknown-linux-musl/lib/libc.a(syscall.o)
 .rodata.__FUNCTION__.140
                0x000000020000f578       0x19 /home/zbtrs/ospp/rt-thread/bsp/toolchain/riscv64-linux-musleabi_for_x86_64-pc-linux-gnu/bin/../lib/gcc/riscv64-unknown-linux-musl/10.1.0/../../../../riscv64-unknown-linux-musl/lib/libc.a(syscall.o)
 *fill*         0x000000020000f591        0x7 
 .rodata.__FUNCTION__.141
                0x000000020000f598       0x17 /home/zbtrs/ospp/rt-thread/bsp/toolchain/riscv64-linux-musleabi_for_x86_64-pc-linux-gnu/bin/../lib/gcc/riscv64-unknown-linux-musl/10.1.0/../../../../riscv64-unknown-linux-musl/lib/libc.a(syscall.o)
 *fill*         0x000000020000f5af        0x1 
 .rodata.__FUNCTION__.142
                0x000000020000f5b0       0x18 /home/zbtrs/ospp/rt-thread/bsp/toolchain/riscv64-linux-musleabi_for_x86_64-pc-linux-gnu/bin/../lib/gcc/riscv64-unknown-linux-musl/10.1.0/../../../../riscv64-unknown-linux-musl/lib/libc.a(syscall.o)
 .rodata.__FUNCTION__.143
                0x000000020000f5c8        0xf /home/zbtrs/ospp/rt-thread/bsp/toolchain/riscv64-linux-musleabi_for_x86_64-pc-linux-gnu/bin/../lib/gcc/riscv64-unknown-linux-musl/10.1.0/../../../../riscv64-unknown-linux-musl/lib/libc.a(syscall.o)
 *fill*         0x000000020000f5d7        0x1 
 .rodata.__FUNCTION__.144
                0x000000020000f5d8       0x13 /home/zbtrs/ospp/rt-thread/bsp/toolchain/riscv64-linux-musleabi_for_x86_64-pc-linux-gnu/bin/../lib/gcc/riscv64-unknown-linux-musl/10.1.0/../../../../riscv64-unknown-linux-musl/lib/libc.a(syscall.o)
 *fill*         0x000000020000f5eb        0x5 
 .rodata.__FUNCTION__.145
                0x000000020000f5f0       0x11 /home/zbtrs/ospp/rt-thread/bsp/toolchain/riscv64-linux-musleabi_for_x86_64-pc-linux-gnu/bin/../lib/gcc/riscv64-unknown-linux-musl/10.1.0/../../../../riscv64-unknown-linux-musl/lib/libc.a(syscall.o)
 *fill*         0x000000020000f601        0x7 
 .rodata.__FUNCTION__.146
                0x000000020000f608        0xe /home/zbtrs/ospp/rt-thread/bsp/toolchain/riscv64-linux-musleabi_for_x86_64-pc-linux-gnu/bin/../lib/gcc/riscv64-unknown-linux-musl/10.1.0/../../../../riscv64-unknown-linux-musl/lib/libc.a(syscall.o)
 *fill*         0x000000020000f616        0x2 
 .rodata.__FUNCTION__.147
                0x000000020000f618        0xf /home/zbtrs/ospp/rt-thread/bsp/toolchain/riscv64-linux-musleabi_for_x86_64-pc-linux-gnu/bin/../lib/gcc/riscv64-unknown-linux-musl/10.1.0/../../../../riscv64-unknown-linux-musl/lib/libc.a(syscall.o)
 *fill*         0x000000020000f627        0x1 
 .rodata.__FUNCTION__.148
                0x000000020000f628        0xf /home/zbtrs/ospp/rt-thread/bsp/toolchain/riscv64-linux-musleabi_for_x86_64-pc-linux-gnu/bin/../lib/gcc/riscv64-unknown-linux-musl/10.1.0/../../../../riscv64-unknown-linux-musl/lib/libc.a(syscall.o)
 *fill*         0x000000020000f637        0x1 
 .rodata.__FUNCTION__.149
                0x000000020000f638        0xf /home/zbtrs/ospp/rt-thread/bsp/toolchain/riscv64-linux-musleabi_for_x86_64-pc-linux-gnu/bin/../lib/gcc/riscv64-unknown-linux-musl/10.1.0/../../../../riscv64-unknown-linux-musl/lib/libc.a(syscall.o)
 *fill*         0x000000020000f647        0x1 
 .rodata.__FUNCTION__.15
                0x000000020000f648        0xd /home/zbtrs/ospp/rt-thread/bsp/toolchain/riscv64-linux-musleabi_for_x86_64-pc-linux-gnu/bin/../lib/gcc/riscv64-unknown-linux-musl/10.1.0/../../../../riscv64-unknown-linux-musl/lib/libc.a(syscall.o)
 *fill*         0x000000020000f655        0x3 
 .rodata.__FUNCTION__.150
                0x000000020000f658        0xf /home/zbtrs/ospp/rt-thread/bsp/toolchain/riscv64-linux-musleabi_for_x86_64-pc-linux-gnu/bin/../lib/gcc/riscv64-unknown-linux-musl/10.1.0/../../../../riscv64-unknown-linux-musl/lib/libc.a(syscall.o)
 *fill*         0x000000020000f667        0x1 
 .rodata.__FUNCTION__.151
                0x000000020000f668        0xf /home/zbtrs/ospp/rt-thread/bsp/toolchain/riscv64-linux-musleabi_for_x86_64-pc-linux-gnu/bin/../lib/gcc/riscv64-unknown-linux-musl/10.1.0/../../../../riscv64-unknown-linux-musl/lib/libc.a(syscall.o)
 *fill*         0x000000020000f677        0x1 
 .rodata.__FUNCTION__.152
                0x000000020000f678        0xf /home/zbtrs/ospp/rt-thread/bsp/toolchain/riscv64-linux-musleabi_for_x86_64-pc-linux-gnu/bin/../lib/gcc/riscv64-unknown-linux-musl/10.1.0/../../../../riscv64-unknown-linux-musl/lib/libc.a(syscall.o)
 *fill*         0x000000020000f687        0x1 
 .rodata.__FUNCTION__.153
                0x000000020000f688       0x10 /home/zbtrs/ospp/rt-thread/bsp/toolchain/riscv64-linux-musleabi_for_x86_64-pc-linux-gnu/bin/../lib/gcc/riscv64-unknown-linux-musl/10.1.0/../../../../riscv64-unknown-linux-musl/lib/libc.a(syscall.o)
 .rodata.__FUNCTION__.154
                0x000000020000f698       0x14 /home/zbtrs/ospp/rt-thread/bsp/toolchain/riscv64-linux-musleabi_for_x86_64-pc-linux-gnu/bin/../lib/gcc/riscv64-unknown-linux-musl/10.1.0/../../../../riscv64-unknown-linux-musl/lib/libc.a(syscall.o)
 *fill*         0x000000020000f6ac        0x4 
 .rodata.__FUNCTION__.155
                0x000000020000f6b0        0xf /home/zbtrs/ospp/rt-thread/bsp/toolchain/riscv64-linux-musleabi_for_x86_64-pc-linux-gnu/bin/../lib/gcc/riscv64-unknown-linux-musl/10.1.0/../../../../riscv64-unknown-linux-musl/lib/libc.a(syscall.o)
 *fill*         0x000000020000f6bf        0x1 
 .rodata.__FUNCTION__.156
                0x000000020000f6c0       0x13 /home/zbtrs/ospp/rt-thread/bsp/toolchain/riscv64-linux-musleabi_for_x86_64-pc-linux-gnu/bin/../lib/gcc/riscv64-unknown-linux-musl/10.1.0/../../../../riscv64-unknown-linux-musl/lib/libc.a(syscall.o)
 *fill*         0x000000020000f6d3        0x5 
 .rodata.__FUNCTION__.157
                0x000000020000f6d8       0x10 /home/zbtrs/ospp/rt-thread/bsp/toolchain/riscv64-linux-musleabi_for_x86_64-pc-linux-gnu/bin/../lib/gcc/riscv64-unknown-linux-musl/10.1.0/../../../../riscv64-unknown-linux-musl/lib/libc.a(syscall.o)
 .rodata.__FUNCTION__.158
                0x000000020000f6e8       0x13 /home/zbtrs/ospp/rt-thread/bsp/toolchain/riscv64-linux-musleabi_for_x86_64-pc-linux-gnu/bin/../lib/gcc/riscv64-unknown-linux-musl/10.1.0/../../../../riscv64-unknown-linux-musl/lib/libc.a(syscall.o)
 *fill*         0x000000020000f6fb        0x5 
 .rodata.__FUNCTION__.159
                0x000000020000f700       0x13 /home/zbtrs/ospp/rt-thread/bsp/toolchain/riscv64-linux-musleabi_for_x86_64-pc-linux-gnu/bin/../lib/gcc/riscv64-unknown-linux-musl/10.1.0/../../../../riscv64-unknown-linux-musl/lib/libc.a(syscall.o)
 *fill*         0x000000020000f713        0x5 
 .rodata.__FUNCTION__.16
                0x000000020000f718       0x10 /home/zbtrs/ospp/rt-thread/bsp/toolchain/riscv64-linux-musleabi_for_x86_64-pc-linux-gnu/bin/../lib/gcc/riscv64-unknown-linux-musl/10.1.0/../../../../riscv64-unknown-linux-musl/lib/libc.a(syscall.o)
 .rodata.__FUNCTION__.160
                0x000000020000f728       0x15 /home/zbtrs/ospp/rt-thread/bsp/toolchain/riscv64-linux-musleabi_for_x86_64-pc-linux-gnu/bin/../lib/gcc/riscv64-unknown-linux-musl/10.1.0/../../../../riscv64-unknown-linux-musl/lib/libc.a(syscall.o)
 *fill*         0x000000020000f73d        0x3 
 .rodata.__FUNCTION__.161
                0x000000020000f740       0x1a /home/zbtrs/ospp/rt-thread/bsp/toolchain/riscv64-linux-musleabi_for_x86_64-pc-linux-gnu/bin/../lib/gcc/riscv64-unknown-linux-musl/10.1.0/../../../../riscv64-unknown-linux-musl/lib/libc.a(syscall.o)
 *fill*         0x000000020000f75a        0x6 
 .rodata.__FUNCTION__.162
                0x000000020000f760       0x19 /home/zbtrs/ospp/rt-thread/bsp/toolchain/riscv64-linux-musleabi_for_x86_64-pc-linux-gnu/bin/../lib/gcc/riscv64-unknown-linux-musl/10.1.0/../../../../riscv64-unknown-linux-musl/lib/libc.a(syscall.o)
 *fill*         0x000000020000f779        0x7 
 .rodata.__FUNCTION__.163
                0x000000020000f780        0xe /home/zbtrs/ospp/rt-thread/bsp/toolchain/riscv64-linux-musleabi_for_x86_64-pc-linux-gnu/bin/../lib/gcc/riscv64-unknown-linux-musl/10.1.0/../../../../riscv64-unknown-linux-musl/lib/libc.a(syscall.o)
 *fill*         0x000000020000f78e        0x2 
 .rodata.__FUNCTION__.164
                0x000000020000f790       0x16 /home/zbtrs/ospp/rt-thread/bsp/toolchain/riscv64-linux-musleabi_for_x86_64-pc-linux-gnu/bin/../lib/gcc/riscv64-unknown-linux-musl/10.1.0/../../../../riscv64-unknown-linux-musl/lib/libc.a(syscall.o)
 *fill*         0x000000020000f7a6        0x2 
 .rodata.__FUNCTION__.165
                0x000000020000f7a8       0x16 /home/zbtrs/ospp/rt-thread/bsp/toolchain/riscv64-linux-musleabi_for_x86_64-pc-linux-gnu/bin/../lib/gcc/riscv64-unknown-linux-musl/10.1.0/../../../../riscv64-unknown-linux-musl/lib/libc.a(syscall.o)
 *fill*         0x000000020000f7be        0x2 
 .rodata.__FUNCTION__.166
                0x000000020000f7c0       0x10 /home/zbtrs/ospp/rt-thread/bsp/toolchain/riscv64-linux-musleabi_for_x86_64-pc-linux-gnu/bin/../lib/gcc/riscv64-unknown-linux-musl/10.1.0/../../../../riscv64-unknown-linux-musl/lib/libc.a(syscall.o)
 .rodata.__FUNCTION__.167
                0x000000020000f7d0       0x10 /home/zbtrs/ospp/rt-thread/bsp/toolchain/riscv64-linux-musleabi_for_x86_64-pc-linux-gnu/bin/../lib/gcc/riscv64-unknown-linux-musl/10.1.0/../../../../riscv64-unknown-linux-musl/lib/libc.a(syscall.o)
 .rodata.__FUNCTION__.168
                0x000000020000f7e0       0x11 /home/zbtrs/ospp/rt-thread/bsp/toolchain/riscv64-linux-musleabi_for_x86_64-pc-linux-gnu/bin/../lib/gcc/riscv64-unknown-linux-musl/10.1.0/../../../../riscv64-unknown-linux-musl/lib/libc.a(syscall.o)
 *fill*         0x000000020000f7f1        0x7 
 .rodata.__FUNCTION__.169
                0x000000020000f7f8       0x12 /home/zbtrs/ospp/rt-thread/bsp/toolchain/riscv64-linux-musleabi_for_x86_64-pc-linux-gnu/bin/../lib/gcc/riscv64-unknown-linux-musl/10.1.0/../../../../riscv64-unknown-linux-musl/lib/libc.a(syscall.o)
 *fill*         0x000000020000f80a        0x6 
 .rodata.__FUNCTION__.17
                0x000000020000f810        0xe /home/zbtrs/ospp/rt-thread/bsp/toolchain/riscv64-linux-musleabi_for_x86_64-pc-linux-gnu/bin/../lib/gcc/riscv64-unknown-linux-musl/10.1.0/../../../../riscv64-unknown-linux-musl/lib/libc.a(syscall.o)
 *fill*         0x000000020000f81e        0x2 
 .rodata.__FUNCTION__.170
                0x000000020000f820       0x12 /home/zbtrs/ospp/rt-thread/bsp/toolchain/riscv64-linux-musleabi_for_x86_64-pc-linux-gnu/bin/../lib/gcc/riscv64-unknown-linux-musl/10.1.0/../../../../riscv64-unknown-linux-musl/lib/libc.a(syscall.o)
 *fill*         0x000000020000f832        0x6 
 .rodata.__FUNCTION__.171
                0x000000020000f838       0x11 /home/zbtrs/ospp/rt-thread/bsp/toolchain/riscv64-linux-musleabi_for_x86_64-pc-linux-gnu/bin/../lib/gcc/riscv64-unknown-linux-musl/10.1.0/../../../../riscv64-unknown-linux-musl/lib/libc.a(syscall.o)
 *fill*         0x000000020000f849        0x7 
 .rodata.__FUNCTION__.172
                0x000000020000f850       0x11 /home/zbtrs/ospp/rt-thread/bsp/toolchain/riscv64-linux-musleabi_for_x86_64-pc-linux-gnu/bin/../lib/gcc/riscv64-unknown-linux-musl/10.1.0/../../../../riscv64-unknown-linux-musl/lib/libc.a(syscall.o)
 *fill*         0x000000020000f861        0x7 
 .rodata.__FUNCTION__.173
                0x000000020000f868        0xf /home/zbtrs/ospp/rt-thread/bsp/toolchain/riscv64-linux-musleabi_for_x86_64-pc-linux-gnu/bin/../lib/gcc/riscv64-unknown-linux-musl/10.1.0/../../../../riscv64-unknown-linux-musl/lib/libc.a(syscall.o)
 *fill*         0x000000020000f877        0x1 
 .rodata.__FUNCTION__.174
                0x000000020000f878       0x12 /home/zbtrs/ospp/rt-thread/bsp/toolchain/riscv64-linux-musleabi_for_x86_64-pc-linux-gnu/bin/../lib/gcc/riscv64-unknown-linux-musl/10.1.0/../../../../riscv64-unknown-linux-musl/lib/libc.a(syscall.o)
 *fill*         0x000000020000f88a        0x6 
 .rodata.__FUNCTION__.175
                0x000000020000f890       0x13 /home/zbtrs/ospp/rt-thread/bsp/toolchain/riscv64-linux-musleabi_for_x86_64-pc-linux-gnu/bin/../lib/gcc/riscv64-unknown-linux-musl/10.1.0/../../../../riscv64-unknown-linux-musl/lib/libc.a(syscall.o)
 *fill*         0x000000020000f8a3        0x5 
 .rodata.__FUNCTION__.176
                0x000000020000f8a8       0x11 /home/zbtrs/ospp/rt-thread/bsp/toolchain/riscv64-linux-musleabi_for_x86_64-pc-linux-gnu/bin/../lib/gcc/riscv64-unknown-linux-musl/10.1.0/../../../../riscv64-unknown-linux-musl/lib/libc.a(syscall.o)
 *fill*         0x000000020000f8b9        0x7 
 .rodata.__FUNCTION__.177
                0x000000020000f8c0       0x12 /home/zbtrs/ospp/rt-thread/bsp/toolchain/riscv64-linux-musleabi_for_x86_64-pc-linux-gnu/bin/../lib/gcc/riscv64-unknown-linux-musl/10.1.0/../../../../riscv64-unknown-linux-musl/lib/libc.a(syscall.o)
 *fill*         0x000000020000f8d2        0x6 
 .rodata.__FUNCTION__.178
                0x000000020000f8d8       0x11 /home/zbtrs/ospp/rt-thread/bsp/toolchain/riscv64-linux-musleabi_for_x86_64-pc-linux-gnu/bin/../lib/gcc/riscv64-unknown-linux-musl/10.1.0/../../../../riscv64-unknown-linux-musl/lib/libc.a(syscall.o)
 *fill*         0x000000020000f8e9        0x7 
 .rodata.__FUNCTION__.179
                0x000000020000f8f0        0xe /home/zbtrs/ospp/rt-thread/bsp/toolchain/riscv64-linux-musleabi_for_x86_64-pc-linux-gnu/bin/../lib/gcc/riscv64-unknown-linux-musl/10.1.0/../../../../riscv64-unknown-linux-musl/lib/libc.a(syscall.o)
 *fill*         0x000000020000f8fe        0x2 
 .rodata.__FUNCTION__.18
                0x000000020000f900        0xf /home/zbtrs/ospp/rt-thread/bsp/toolchain/riscv64-linux-musleabi_for_x86_64-pc-linux-gnu/bin/../lib/gcc/riscv64-unknown-linux-musl/10.1.0/../../../../riscv64-unknown-linux-musl/lib/libc.a(syscall.o)
 *fill*         0x000000020000f90f        0x1 
 .rodata.__FUNCTION__.180
                0x000000020000f910       0x10 /home/zbtrs/ospp/rt-thread/bsp/toolchain/riscv64-linux-musleabi_for_x86_64-pc-linux-gnu/bin/../lib/gcc/riscv64-unknown-linux-musl/10.1.0/../../../../riscv64-unknown-linux-musl/lib/libc.a(syscall.o)
 .rodata.__FUNCTION__.181
                0x000000020000f920       0x18 /home/zbtrs/ospp/rt-thread/bsp/toolchain/riscv64-linux-musleabi_for_x86_64-pc-linux-gnu/bin/../lib/gcc/riscv64-unknown-linux-musl/10.1.0/../../../../riscv64-unknown-linux-musl/lib/libc.a(syscall.o)
 .rodata.__FUNCTION__.182
                0x000000020000f938       0x18 /home/zbtrs/ospp/rt-thread/bsp/toolchain/riscv64-linux-musleabi_for_x86_64-pc-linux-gnu/bin/../lib/gcc/riscv64-unknown-linux-musl/10.1.0/../../../../riscv64-unknown-linux-musl/lib/libc.a(syscall.o)
 .rodata.__FUNCTION__.183
                0x000000020000f950        0xf /home/zbtrs/ospp/rt-thread/bsp/toolchain/riscv64-linux-musleabi_for_x86_64-pc-linux-gnu/bin/../lib/gcc/riscv64-unknown-linux-musl/10.1.0/../../../../riscv64-unknown-linux-musl/lib/libc.a(syscall.o)
 *fill*         0x000000020000f95f        0x1 
 .rodata.__FUNCTION__.184
                0x000000020000f960       0x1c /home/zbtrs/ospp/rt-thread/bsp/toolchain/riscv64-linux-musleabi_for_x86_64-pc-linux-gnu/bin/../lib/gcc/riscv64-unknown-linux-musl/10.1.0/../../../../riscv64-unknown-linux-musl/lib/libc.a(syscall.o)
 *fill*         0x000000020000f97c        0x4 
 .rodata.__FUNCTION__.185
                0x000000020000f980        0xc /home/zbtrs/ospp/rt-thread/bsp/toolchain/riscv64-linux-musleabi_for_x86_64-pc-linux-gnu/bin/../lib/gcc/riscv64-unknown-linux-musl/10.1.0/../../../../riscv64-unknown-linux-musl/lib/libc.a(syscall.o)
 *fill*         0x000000020000f98c        0x4 
 .rodata.__FUNCTION__.186
                0x000000020000f990       0x11 /home/zbtrs/ospp/rt-thread/bsp/toolchain/riscv64-linux-musleabi_for_x86_64-pc-linux-gnu/bin/../lib/gcc/riscv64-unknown-linux-musl/10.1.0/../../../../riscv64-unknown-linux-musl/lib/libc.a(syscall.o)
 *fill*         0x000000020000f9a1        0x7 
 .rodata.__FUNCTION__.187
                0x000000020000f9a8       0x13 /home/zbtrs/ospp/rt-thread/bsp/toolchain/riscv64-linux-musleabi_for_x86_64-pc-linux-gnu/bin/../lib/gcc/riscv64-unknown-linux-musl/10.1.0/../../../../riscv64-unknown-linux-musl/lib/libc.a(syscall.o)
 *fill*         0x000000020000f9bb        0x5 
 .rodata.__FUNCTION__.188
                0x000000020000f9c0        0xf /home/zbtrs/ospp/rt-thread/bsp/toolchain/riscv64-linux-musleabi_for_x86_64-pc-linux-gnu/bin/../lib/gcc/riscv64-unknown-linux-musl/10.1.0/../../../../riscv64-unknown-linux-musl/lib/libc.a(syscall.o)
 *fill*         0x000000020000f9cf        0x1 
 .rodata.__FUNCTION__.189
                0x000000020000f9d0       0x14 /home/zbtrs/ospp/rt-thread/bsp/toolchain/riscv64-linux-musleabi_for_x86_64-pc-linux-gnu/bin/../lib/gcc/riscv64-unknown-linux-musl/10.1.0/../../../../riscv64-unknown-linux-musl/lib/libc.a(syscall.o)
 *fill*         0x000000020000f9e4        0x4 
 .rodata.__FUNCTION__.19
                0x000000020000f9e8        0xe /home/zbtrs/ospp/rt-thread/bsp/toolchain/riscv64-linux-musleabi_for_x86_64-pc-linux-gnu/bin/../lib/gcc/riscv64-unknown-linux-musl/10.1.0/../../../../riscv64-unknown-linux-musl/lib/libc.a(syscall.o)
 *fill*         0x000000020000f9f6        0x2 
 .rodata.__FUNCTION__.190
                0x000000020000f9f8       0x13 /home/zbtrs/ospp/rt-thread/bsp/toolchain/riscv64-linux-musleabi_for_x86_64-pc-linux-gnu/bin/../lib/gcc/riscv64-unknown-linux-musl/10.1.0/../../../../riscv64-unknown-linux-musl/lib/libc.a(syscall.o)
 *fill*         0x000000020000fa0b        0x5 
 .rodata.__FUNCTION__.191
                0x000000020000fa10       0x12 /home/zbtrs/ospp/rt-thread/bsp/toolchain/riscv64-linux-musleabi_for_x86_64-pc-linux-gnu/bin/../lib/gcc/riscv64-unknown-linux-musl/10.1.0/../../../../riscv64-unknown-linux-musl/lib/libc.a(syscall.o)
 *fill*         0x000000020000fa22        0x6 
 .rodata.__FUNCTION__.192
                0x000000020000fa28       0x11 /home/zbtrs/ospp/rt-thread/bsp/toolchain/riscv64-linux-musleabi_for_x86_64-pc-linux-gnu/bin/../lib/gcc/riscv64-unknown-linux-musl/10.1.0/../../../../riscv64-unknown-linux-musl/lib/libc.a(syscall.o)
 *fill*         0x000000020000fa39        0x7 
 .rodata.__FUNCTION__.193
                0x000000020000fa40       0x17 /home/zbtrs/ospp/rt-thread/bsp/toolchain/riscv64-linux-musleabi_for_x86_64-pc-linux-gnu/bin/../lib/gcc/riscv64-unknown-linux-musl/10.1.0/../../../../riscv64-unknown-linux-musl/lib/libc.a(syscall.o)
 *fill*         0x000000020000fa57        0x1 
 .rodata.__FUNCTION__.194
                0x000000020000fa58       0x10 /home/zbtrs/ospp/rt-thread/bsp/toolchain/riscv64-linux-musleabi_for_x86_64-pc-linux-gnu/bin/../lib/gcc/riscv64-unknown-linux-musl/10.1.0/../../../../riscv64-unknown-linux-musl/lib/libc.a(syscall.o)
 .rodata.__FUNCTION__.195
                0x000000020000fa68       0x12 /home/zbtrs/ospp/rt-thread/bsp/toolchain/riscv64-linux-musleabi_for_x86_64-pc-linux-gnu/bin/../lib/gcc/riscv64-unknown-linux-musl/10.1.0/../../../../riscv64-unknown-linux-musl/lib/libc.a(syscall.o)
 *fill*         0x000000020000fa7a        0x6 
 .rodata.__FUNCTION__.196
                0x000000020000fa80       0x18 /home/zbtrs/ospp/rt-thread/bsp/toolchain/riscv64-linux-musleabi_for_x86_64-pc-linux-gnu/bin/../lib/gcc/riscv64-unknown-linux-musl/10.1.0/../../../../riscv64-unknown-linux-musl/lib/libc.a(syscall.o)
 .rodata.__FUNCTION__.197
                0x000000020000fa98       0x18 /home/zbtrs/ospp/rt-thread/bsp/toolchain/riscv64-linux-musleabi_for_x86_64-pc-linux-gnu/bin/../lib/gcc/riscv64-unknown-linux-musl/10.1.0/../../../../riscv64-unknown-linux-musl/lib/libc.a(syscall.o)
 .rodata.__FUNCTION__.198
                0x000000020000fab0       0x12 /home/zbtrs/ospp/rt-thread/bsp/toolchain/riscv64-linux-musleabi_for_x86_64-pc-linux-gnu/bin/../lib/gcc/riscv64-unknown-linux-musl/10.1.0/../../../../riscv64-unknown-linux-musl/lib/libc.a(syscall.o)
 *fill*         0x000000020000fac2        0x6 
 .rodata.__FUNCTION__.199
                0x000000020000fac8       0x11 /home/zbtrs/ospp/rt-thread/bsp/toolchain/riscv64-linux-musleabi_for_x86_64-pc-linux-gnu/bin/../lib/gcc/riscv64-unknown-linux-musl/10.1.0/../../../../riscv64-unknown-linux-musl/lib/libc.a(syscall.o)
 *fill*         0x000000020000fad9        0x7 
 .rodata.__FUNCTION__.2
                0x000000020000fae0        0xe /home/zbtrs/ospp/rt-thread/bsp/toolchain/riscv64-linux-musleabi_for_x86_64-pc-linux-gnu/bin/../lib/gcc/riscv64-unknown-linux-musl/10.1.0/../../../../riscv64-unknown-linux-musl/lib/libc.a(syscall.o)
 *fill*         0x000000020000faee        0x2 
 .rodata.__FUNCTION__.20
                0x000000020000faf0       0x10 /home/zbtrs/ospp/rt-thread/bsp/toolchain/riscv64-linux-musleabi_for_x86_64-pc-linux-gnu/bin/../lib/gcc/riscv64-unknown-linux-musl/10.1.0/../../../../riscv64-unknown-linux-musl/lib/libc.a(syscall.o)
 .rodata.__FUNCTION__.200
                0x000000020000fb00       0x16 /home/zbtrs/ospp/rt-thread/bsp/toolchain/riscv64-linux-musleabi_for_x86_64-pc-linux-gnu/bin/../lib/gcc/riscv64-unknown-linux-musl/10.1.0/../../../../riscv64-unknown-linux-musl/lib/libc.a(syscall.o)
 *fill*         0x000000020000fb16        0x2 
 .rodata.__FUNCTION__.201
                0x000000020000fb18        0xd /home/zbtrs/ospp/rt-thread/bsp/toolchain/riscv64-linux-musleabi_for_x86_64-pc-linux-gnu/bin/../lib/gcc/riscv64-unknown-linux-musl/10.1.0/../../../../riscv64-unknown-linux-musl/lib/libc.a(syscall.o)
 *fill*         0x000000020000fb25        0x3 
 .rodata.__FUNCTION__.202
                0x000000020000fb28        0xe /home/zbtrs/ospp/rt-thread/bsp/toolchain/riscv64-linux-musleabi_for_x86_64-pc-linux-gnu/bin/../lib/gcc/riscv64-unknown-linux-musl/10.1.0/../../../../riscv64-unknown-linux-musl/lib/libc.a(syscall.o)
 *fill*         0x000000020000fb36        0x2 
 .rodata.__FUNCTION__.203
                0x000000020000fb38       0x16 /home/zbtrs/ospp/rt-thread/bsp/toolchain/riscv64-linux-musleabi_for_x86_64-pc-linux-gnu/bin/../lib/gcc/riscv64-unknown-linux-musl/10.1.0/../../../../riscv64-unknown-linux-musl/lib/libc.a(syscall.o)
 *fill*         0x000000020000fb4e        0x2 
 .rodata.__FUNCTION__.204
                0x000000020000fb50        0xf /home/zbtrs/ospp/rt-thread/bsp/toolchain/riscv64-linux-musleabi_for_x86_64-pc-linux-gnu/bin/../lib/gcc/riscv64-unknown-linux-musl/10.1.0/../../../../riscv64-unknown-linux-musl/lib/libc.a(syscall.o)
 *fill*         0x000000020000fb5f        0x1 
 .rodata.__FUNCTION__.205
                0x000000020000fb60       0x10 /home/zbtrs/ospp/rt-thread/bsp/toolchain/riscv64-linux-musleabi_for_x86_64-pc-linux-gnu/bin/../lib/gcc/riscv64-unknown-linux-musl/10.1.0/../../../../riscv64-unknown-linux-musl/lib/libc.a(syscall.o)
 .rodata.__FUNCTION__.206
                0x000000020000fb70       0x1a /home/zbtrs/ospp/rt-thread/bsp/toolchain/riscv64-linux-musleabi_for_x86_64-pc-linux-gnu/bin/../lib/gcc/riscv64-unknown-linux-musl/10.1.0/../../../../riscv64-unknown-linux-musl/lib/libc.a(syscall.o)
 *fill*         0x000000020000fb8a        0x6 
 .rodata.__FUNCTION__.207
                0x000000020000fb90       0x18 /home/zbtrs/ospp/rt-thread/bsp/toolchain/riscv64-linux-musleabi_for_x86_64-pc-linux-gnu/bin/../lib/gcc/riscv64-unknown-linux-musl/10.1.0/../../../../riscv64-unknown-linux-musl/lib/libc.a(syscall.o)
 .rodata.__FUNCTION__.208
                0x000000020000fba8       0x11 /home/zbtrs/ospp/rt-thread/bsp/toolchain/riscv64-linux-musleabi_for_x86_64-pc-linux-gnu/bin/../lib/gcc/riscv64-unknown-linux-musl/10.1.0/../../../../riscv64-unknown-linux-musl/lib/libc.a(syscall.o)
 *fill*         0x000000020000fbb9        0x7 
 .rodata.__FUNCTION__.209
                0x000000020000fbc0       0x10 /home/zbtrs/ospp/rt-thread/bsp/toolchain/riscv64-linux-musleabi_for_x86_64-pc-linux-gnu/bin/../lib/gcc/riscv64-unknown-linux-musl/10.1.0/../../../../riscv64-unknown-linux-musl/lib/libc.a(syscall.o)
 .rodata.__FUNCTION__.21
                0x000000020000fbd0       0x10 /home/zbtrs/ospp/rt-thread/bsp/toolchain/riscv64-linux-musleabi_for_x86_64-pc-linux-gnu/bin/../lib/gcc/riscv64-unknown-linux-musl/10.1.0/../../../../riscv64-unknown-linux-musl/lib/libc.a(syscall.o)
 .rodata.__FUNCTION__.210
                0x000000020000fbe0       0x16 /home/zbtrs/ospp/rt-thread/bsp/toolchain/riscv64-linux-musleabi_for_x86_64-pc-linux-gnu/bin/../lib/gcc/riscv64-unknown-linux-musl/10.1.0/../../../../riscv64-unknown-linux-musl/lib/libc.a(syscall.o)
 *fill*         0x000000020000fbf6        0x2 
 .rodata.__FUNCTION__.211
                0x000000020000fbf8       0x16 /home/zbtrs/ospp/rt-thread/bsp/toolchain/riscv64-linux-musleabi_for_x86_64-pc-linux-gnu/bin/../lib/gcc/riscv64-unknown-linux-musl/10.1.0/../../../../riscv64-unknown-linux-musl/lib/libc.a(syscall.o)
 *fill*         0x000000020000fc0e        0x2 
 .rodata.__FUNCTION__.212
                0x000000020000fc10       0x1a /home/zbtrs/ospp/rt-thread/bsp/toolchain/riscv64-linux-musleabi_for_x86_64-pc-linux-gnu/bin/../lib/gcc/riscv64-unknown-linux-musl/10.1.0/../../../../riscv64-unknown-linux-musl/lib/libc.a(syscall.o)
 *fill*         0x000000020000fc2a        0x6 
 .rodata.__FUNCTION__.213
                0x000000020000fc30       0x1a /home/zbtrs/ospp/rt-thread/bsp/toolchain/riscv64-linux-musleabi_for_x86_64-pc-linux-gnu/bin/../lib/gcc/riscv64-unknown-linux-musl/10.1.0/../../../../riscv64-unknown-linux-musl/lib/libc.a(syscall.o)
 *fill*         0x000000020000fc4a        0x6 
 .rodata.__FUNCTION__.214
                0x000000020000fc50       0x16 /home/zbtrs/ospp/rt-thread/bsp/toolchain/riscv64-linux-musleabi_for_x86_64-pc-linux-gnu/bin/../lib/gcc/riscv64-unknown-linux-musl/10.1.0/../../../../riscv64-unknown-linux-musl/lib/libc.a(syscall.o)
 *fill*         0x000000020000fc66        0x2 
 .rodata.__FUNCTION__.215
                0x000000020000fc68        0xf /home/zbtrs/ospp/rt-thread/bsp/toolchain/riscv64-linux-musleabi_for_x86_64-pc-linux-gnu/bin/../lib/gcc/riscv64-unknown-linux-musl/10.1.0/../../../../riscv64-unknown-linux-musl/lib/libc.a(syscall.o)
 *fill*         0x000000020000fc77        0x1 
 .rodata.__FUNCTION__.216
                0x000000020000fc78       0x11 /home/zbtrs/ospp/rt-thread/bsp/toolchain/riscv64-linux-musleabi_for_x86_64-pc-linux-gnu/bin/../lib/gcc/riscv64-unknown-linux-musl/10.1.0/../../../../riscv64-unknown-linux-musl/lib/libc.a(syscall.o)
 *fill*         0x000000020000fc89        0x7 
 .rodata.__FUNCTION__.217
                0x000000020000fc90        0xe /home/zbtrs/ospp/rt-thread/bsp/toolchain/riscv64-linux-musleabi_for_x86_64-pc-linux-gnu/bin/../lib/gcc/riscv64-unknown-linux-musl/10.1.0/../../../../riscv64-unknown-linux-musl/lib/libc.a(syscall.o)
 *fill*         0x000000020000fc9e        0x2 
 .rodata.__FUNCTION__.218
                0x000000020000fca0       0x19 /home/zbtrs/ospp/rt-thread/bsp/toolchain/riscv64-linux-musleabi_for_x86_64-pc-linux-gnu/bin/../lib/gcc/riscv64-unknown-linux-musl/10.1.0/../../../../riscv64-unknown-linux-musl/lib/libc.a(syscall.o)
 *fill*         0x000000020000fcb9        0x7 
 .rodata.__FUNCTION__.219
                0x000000020000fcc0       0x1a /home/zbtrs/ospp/rt-thread/bsp/toolchain/riscv64-linux-musleabi_for_x86_64-pc-linux-gnu/bin/../lib/gcc/riscv64-unknown-linux-musl/10.1.0/../../../../riscv64-unknown-linux-musl/lib/libc.a(syscall.o)
 *fill*         0x000000020000fcda        0x6 
 .rodata.__FUNCTION__.22
                0x000000020000fce0       0x11 /home/zbtrs/ospp/rt-thread/bsp/toolchain/riscv64-linux-musleabi_for_x86_64-pc-linux-gnu/bin/../lib/gcc/riscv64-unknown-linux-musl/10.1.0/../../../../riscv64-unknown-linux-musl/lib/libc.a(syscall.o)
 *fill*         0x000000020000fcf1        0x7 
 .rodata.__FUNCTION__.220
                0x000000020000fcf8        0xd /home/zbtrs/ospp/rt-thread/bsp/toolchain/riscv64-linux-musleabi_for_x86_64-pc-linux-gnu/bin/../lib/gcc/riscv64-unknown-linux-musl/10.1.0/../../../../riscv64-unknown-linux-musl/lib/libc.a(syscall.o)
 *fill*         0x000000020000fd05        0x3 
 .rodata.__FUNCTION__.221
                0x000000020000fd08       0x15 /home/zbtrs/ospp/rt-thread/bsp/toolchain/riscv64-linux-musleabi_for_x86_64-pc-linux-gnu/bin/../lib/gcc/riscv64-unknown-linux-musl/10.1.0/../../../../riscv64-unknown-linux-musl/lib/libc.a(syscall.o)
 *fill*         0x000000020000fd1d        0x3 
 .rodata.__FUNCTION__.222
                0x000000020000fd20       0x16 /home/zbtrs/ospp/rt-thread/bsp/toolchain/riscv64-linux-musleabi_for_x86_64-pc-linux-gnu/bin/../lib/gcc/riscv64-unknown-linux-musl/10.1.0/../../../../riscv64-unknown-linux-musl/lib/libc.a(syscall.o)
 *fill*         0x000000020000fd36        0x2 
 .rodata.__FUNCTION__.223
                0x000000020000fd38       0x16 /home/zbtrs/ospp/rt-thread/bsp/toolchain/riscv64-linux-musleabi_for_x86_64-pc-linux-gnu/bin/../lib/gcc/riscv64-unknown-linux-musl/10.1.0/../../../../riscv64-unknown-linux-musl/lib/libc.a(syscall.o)
 *fill*         0x000000020000fd4e        0x2 
 .rodata.__FUNCTION__.224
                0x000000020000fd50       0x12 /home/zbtrs/ospp/rt-thread/bsp/toolchain/riscv64-linux-musleabi_for_x86_64-pc-linux-gnu/bin/../lib/gcc/riscv64-unknown-linux-musl/10.1.0/../../../../riscv64-unknown-linux-musl/lib/libc.a(syscall.o)
 *fill*         0x000000020000fd62        0x6 
 .rodata.__FUNCTION__.225
                0x000000020000fd68       0x10 /home/zbtrs/ospp/rt-thread/bsp/toolchain/riscv64-linux-musleabi_for_x86_64-pc-linux-gnu/bin/../lib/gcc/riscv64-unknown-linux-musl/10.1.0/../../../../riscv64-unknown-linux-musl/lib/libc.a(syscall.o)
 .rodata.__FUNCTION__.226
                0x000000020000fd78       0x15 /home/zbtrs/ospp/rt-thread/bsp/toolchain/riscv64-linux-musleabi_for_x86_64-pc-linux-gnu/bin/../lib/gcc/riscv64-unknown-linux-musl/10.1.0/../../../../riscv64-unknown-linux-musl/lib/libc.a(syscall.o)
 *fill*         0x000000020000fd8d        0x3 
 .rodata.__FUNCTION__.227
                0x000000020000fd90        0xc /home/zbtrs/ospp/rt-thread/bsp/toolchain/riscv64-linux-musleabi_for_x86_64-pc-linux-gnu/bin/../lib/gcc/riscv64-unknown-linux-musl/10.1.0/../../../../riscv64-unknown-linux-musl/lib/libc.a(syscall.o)
 *fill*         0x000000020000fd9c        0x4 
 .rodata.__FUNCTION__.228
                0x000000020000fda0       0x11 /home/zbtrs/ospp/rt-thread/bsp/toolchain/riscv64-linux-musleabi_for_x86_64-pc-linux-gnu/bin/../lib/gcc/riscv64-unknown-linux-musl/10.1.0/../../../../riscv64-unknown-linux-musl/lib/libc.a(syscall.o)
 *fill*         0x000000020000fdb1        0x7 
 .rodata.__FUNCTION__.229
                0x000000020000fdb8       0x14 /home/zbtrs/ospp/rt-thread/bsp/toolchain/riscv64-linux-musleabi_for_x86_64-pc-linux-gnu/bin/../lib/gcc/riscv64-unknown-linux-musl/10.1.0/../../../../riscv64-unknown-linux-musl/lib/libc.a(syscall.o)
 *fill*         0x000000020000fdcc        0x4 
 .rodata.__FUNCTION__.23
                0x000000020000fdd0       0x11 /home/zbtrs/ospp/rt-thread/bsp/toolchain/riscv64-linux-musleabi_for_x86_64-pc-linux-gnu/bin/../lib/gcc/riscv64-unknown-linux-musl/10.1.0/../../../../riscv64-unknown-linux-musl/lib/libc.a(syscall.o)
 *fill*         0x000000020000fde1        0x7 
 .rodata.__FUNCTION__.230
                0x000000020000fde8       0x13 /home/zbtrs/ospp/rt-thread/bsp/toolchain/riscv64-linux-musleabi_for_x86_64-pc-linux-gnu/bin/../lib/gcc/riscv64-unknown-linux-musl/10.1.0/../../../../riscv64-unknown-linux-musl/lib/libc.a(syscall.o)
 *fill*         0x000000020000fdfb        0x5 
 .rodata.__FUNCTION__.231
                0x000000020000fe00        0xf /home/zbtrs/ospp/rt-thread/bsp/toolchain/riscv64-linux-musleabi_for_x86_64-pc-linux-gnu/bin/../lib/gcc/riscv64-unknown-linux-musl/10.1.0/../../../../riscv64-unknown-linux-musl/lib/libc.a(syscall.o)
 *fill*         0x000000020000fe0f        0x1 
 .rodata.__FUNCTION__.232
                0x000000020000fe10       0x18 /home/zbtrs/ospp/rt-thread/bsp/toolchain/riscv64-linux-musleabi_for_x86_64-pc-linux-gnu/bin/../lib/gcc/riscv64-unknown-linux-musl/10.1.0/../../../../riscv64-unknown-linux-musl/lib/libc.a(syscall.o)
 .rodata.__FUNCTION__.233
                0x000000020000fe28       0x10 /home/zbtrs/ospp/rt-thread/bsp/toolchain/riscv64-linux-musleabi_for_x86_64-pc-linux-gnu/bin/../lib/gcc/riscv64-unknown-linux-musl/10.1.0/../../../../riscv64-unknown-linux-musl/lib/libc.a(syscall.o)
 .rodata.__FUNCTION__.234
                0x000000020000fe38       0x11 /home/zbtrs/ospp/rt-thread/bsp/toolchain/riscv64-linux-musleabi_for_x86_64-pc-linux-gnu/bin/../lib/gcc/riscv64-unknown-linux-musl/10.1.0/../../../../riscv64-unknown-linux-musl/lib/libc.a(syscall.o)
 *fill*         0x000000020000fe49        0x7 
 .rodata.__FUNCTION__.235
                0x000000020000fe50       0x16 /home/zbtrs/ospp/rt-thread/bsp/toolchain/riscv64-linux-musleabi_for_x86_64-pc-linux-gnu/bin/../lib/gcc/riscv64-unknown-linux-musl/10.1.0/../../../../riscv64-unknown-linux-musl/lib/libc.a(syscall.o)
 *fill*         0x000000020000fe66        0x2 
 .rodata.__FUNCTION__.236
                0x000000020000fe68       0x13 /home/zbtrs/ospp/rt-thread/bsp/toolchain/riscv64-linux-musleabi_for_x86_64-pc-linux-gnu/bin/../lib/gcc/riscv64-unknown-linux-musl/10.1.0/../../../../riscv64-unknown-linux-musl/lib/libc.a(syscall.o)
 *fill*         0x000000020000fe7b        0x5 
 .rodata.__FUNCTION__.237
                0x000000020000fe80       0x12 /home/zbtrs/ospp/rt-thread/bsp/toolchain/riscv64-linux-musleabi_for_x86_64-pc-linux-gnu/bin/../lib/gcc/riscv64-unknown-linux-musl/10.1.0/../../../../riscv64-unknown-linux-musl/lib/libc.a(syscall.o)
 *fill*         0x000000020000fe92        0x6 
 .rodata.__FUNCTION__.238
                0x000000020000fe98        0xe /home/zbtrs/ospp/rt-thread/bsp/toolchain/riscv64-linux-musleabi_for_x86_64-pc-linux-gnu/bin/../lib/gcc/riscv64-unknown-linux-musl/10.1.0/../../../../riscv64-unknown-linux-musl/lib/libc.a(syscall.o)
 *fill*         0x000000020000fea6        0x2 
 .rodata.__FUNCTION__.239
                0x000000020000fea8        0xd /home/zbtrs/ospp/rt-thread/bsp/toolchain/riscv64-linux-musleabi_for_x86_64-pc-linux-gnu/bin/../lib/gcc/riscv64-unknown-linux-musl/10.1.0/../../../../riscv64-unknown-linux-musl/lib/libc.a(syscall.o)
 *fill*         0x000000020000feb5        0x3 
 .rodata.__FUNCTION__.24
                0x000000020000feb8       0x13 /home/zbtrs/ospp/rt-thread/bsp/toolchain/riscv64-linux-musleabi_for_x86_64-pc-linux-gnu/bin/../lib/gcc/riscv64-unknown-linux-musl/10.1.0/../../../../riscv64-unknown-linux-musl/lib/libc.a(syscall.o)
 *fill*         0x000000020000fecb        0x5 
 .rodata.__FUNCTION__.240
                0x000000020000fed0       0x16 /home/zbtrs/ospp/rt-thread/bsp/toolchain/riscv64-linux-musleabi_for_x86_64-pc-linux-gnu/bin/../lib/gcc/riscv64-unknown-linux-musl/10.1.0/../../../../riscv64-unknown-linux-musl/lib/libc.a(syscall.o)
 *fill*         0x000000020000fee6        0x2 
 .rodata.__FUNCTION__.25
                0x000000020000fee8       0x13 /home/zbtrs/ospp/rt-thread/bsp/toolchain/riscv64-linux-musleabi_for_x86_64-pc-linux-gnu/bin/../lib/gcc/riscv64-unknown-linux-musl/10.1.0/../../../../riscv64-unknown-linux-musl/lib/libc.a(syscall.o)
 *fill*         0x000000020000fefb        0x5 
 .rodata.__FUNCTION__.26
                0x000000020000ff00       0x14 /home/zbtrs/ospp/rt-thread/bsp/toolchain/riscv64-linux-musleabi_for_x86_64-pc-linux-gnu/bin/../lib/gcc/riscv64-unknown-linux-musl/10.1.0/../../../../riscv64-unknown-linux-musl/lib/libc.a(syscall.o)
 *fill*         0x000000020000ff14        0x4 
 .rodata.__FUNCTION__.27
                0x000000020000ff18       0x12 /home/zbtrs/ospp/rt-thread/bsp/toolchain/riscv64-linux-musleabi_for_x86_64-pc-linux-gnu/bin/../lib/gcc/riscv64-unknown-linux-musl/10.1.0/../../../../riscv64-unknown-linux-musl/lib/libc.a(syscall.o)
 *fill*         0x000000020000ff2a        0x6 
 .rodata.__FUNCTION__.28
                0x000000020000ff30       0x15 /home/zbtrs/ospp/rt-thread/bsp/toolchain/riscv64-linux-musleabi_for_x86_64-pc-linux-gnu/bin/../lib/gcc/riscv64-unknown-linux-musl/10.1.0/../../../../riscv64-unknown-linux-musl/lib/libc.a(syscall.o)
 *fill*         0x000000020000ff45        0x3 
 .rodata.__FUNCTION__.29
                0x000000020000ff48       0x15 /home/zbtrs/ospp/rt-thread/bsp/toolchain/riscv64-linux-musleabi_for_x86_64-pc-linux-gnu/bin/../lib/gcc/riscv64-unknown-linux-musl/10.1.0/../../../../riscv64-unknown-linux-musl/lib/libc.a(syscall.o)
 *fill*         0x000000020000ff5d        0x3 
 .rodata.__FUNCTION__.3
                0x000000020000ff60        0xf /home/zbtrs/ospp/rt-thread/bsp/toolchain/riscv64-linux-musleabi_for_x86_64-pc-linux-gnu/bin/../lib/gcc/riscv64-unknown-linux-musl/10.1.0/../../../../riscv64-unknown-linux-musl/lib/libc.a(syscall.o)
 *fill*         0x000000020000ff6f        0x1 
 .rodata.__FUNCTION__.30
                0x000000020000ff70       0x12 /home/zbtrs/ospp/rt-thread/bsp/toolchain/riscv64-linux-musleabi_for_x86_64-pc-linux-gnu/bin/../lib/gcc/riscv64-unknown-linux-musl/10.1.0/../../../../riscv64-unknown-linux-musl/lib/libc.a(syscall.o)
 *fill*         0x000000020000ff82        0x6 
 .rodata.__FUNCTION__.31
                0x000000020000ff88       0x12 /home/zbtrs/ospp/rt-thread/bsp/toolchain/riscv64-linux-musleabi_for_x86_64-pc-linux-gnu/bin/../lib/gcc/riscv64-unknown-linux-musl/10.1.0/../../../../riscv64-unknown-linux-musl/lib/libc.a(syscall.o)
 *fill*         0x000000020000ff9a        0x6 
 .rodata.__FUNCTION__.32
                0x000000020000ffa0        0xf /home/zbtrs/ospp/rt-thread/bsp/toolchain/riscv64-linux-musleabi_for_x86_64-pc-linux-gnu/bin/../lib/gcc/riscv64-unknown-linux-musl/10.1.0/../../../../riscv64-unknown-linux-musl/lib/libc.a(syscall.o)
 *fill*         0x000000020000ffaf        0x1 
 .rodata.__FUNCTION__.33
                0x000000020000ffb0        0xf /home/zbtrs/ospp/rt-thread/bsp/toolchain/riscv64-linux-musleabi_for_x86_64-pc-linux-gnu/bin/../lib/gcc/riscv64-unknown-linux-musl/10.1.0/../../../../riscv64-unknown-linux-musl/lib/libc.a(syscall.o)
 *fill*         0x000000020000ffbf        0x1 
 .rodata.__FUNCTION__.34
                0x000000020000ffc0       0x11 /home/zbtrs/ospp/rt-thread/bsp/toolchain/riscv64-linux-musleabi_for_x86_64-pc-linux-gnu/bin/../lib/gcc/riscv64-unknown-linux-musl/10.1.0/../../../../riscv64-unknown-linux-musl/lib/libc.a(syscall.o)
 *fill*         0x000000020000ffd1        0x7 
 .rodata.__FUNCTION__.35
                0x000000020000ffd8       0x12 /home/zbtrs/ospp/rt-thread/bsp/toolchain/riscv64-linux-musleabi_for_x86_64-pc-linux-gnu/bin/../lib/gcc/riscv64-unknown-linux-musl/10.1.0/../../../../riscv64-unknown-linux-musl/lib/libc.a(syscall.o)
 *fill*         0x000000020000ffea        0x6 
 .rodata.__FUNCTION__.36
                0x000000020000fff0        0xf /home/zbtrs/ospp/rt-thread/bsp/toolchain/riscv64-linux-musleabi_for_x86_64-pc-linux-gnu/bin/../lib/gcc/riscv64-unknown-linux-musl/10.1.0/../../../../riscv64-unknown-linux-musl/lib/libc.a(syscall.o)
 *fill*         0x000000020000ffff        0x1 
 .rodata.__FUNCTION__.37
                0x0000000200010000        0xf /home/zbtrs/ospp/rt-thread/bsp/toolchain/riscv64-linux-musleabi_for_x86_64-pc-linux-gnu/bin/../lib/gcc/riscv64-unknown-linux-musl/10.1.0/../../../../riscv64-unknown-linux-musl/lib/libc.a(syscall.o)
 *fill*         0x000000020001000f        0x1 
 .rodata.__FUNCTION__.38
                0x0000000200010010       0x14 /home/zbtrs/ospp/rt-thread/bsp/toolchain/riscv64-linux-musleabi_for_x86_64-pc-linux-gnu/bin/../lib/gcc/riscv64-unknown-linux-musl/10.1.0/../../../../riscv64-unknown-linux-musl/lib/libc.a(syscall.o)
 *fill*         0x0000000200010024        0x4 
 .rodata.__FUNCTION__.39
                0x0000000200010028       0x14 /home/zbtrs/ospp/rt-thread/bsp/toolchain/riscv64-linux-musleabi_for_x86_64-pc-linux-gnu/bin/../lib/gcc/riscv64-unknown-linux-musl/10.1.0/../../../../riscv64-unknown-linux-musl/lib/libc.a(syscall.o)
 *fill*         0x000000020001003c        0x4 
 .rodata.__FUNCTION__.4
                0x0000000200010040        0xf /home/zbtrs/ospp/rt-thread/bsp/toolchain/riscv64-linux-musleabi_for_x86_64-pc-linux-gnu/bin/../lib/gcc/riscv64-unknown-linux-musl/10.1.0/../../../../riscv64-unknown-linux-musl/lib/libc.a(syscall.o)
 *fill*         0x000000020001004f        0x1 
 .rodata.__FUNCTION__.40
                0x0000000200010050        0xf /home/zbtrs/ospp/rt-thread/bsp/toolchain/riscv64-linux-musleabi_for_x86_64-pc-linux-gnu/bin/../lib/gcc/riscv64-unknown-linux-musl/10.1.0/../../../../riscv64-unknown-linux-musl/lib/libc.a(syscall.o)
 *fill*         0x000000020001005f        0x1 
 .rodata.__FUNCTION__.41
                0x0000000200010060       0x12 /home/zbtrs/ospp/rt-thread/bsp/toolchain/riscv64-linux-musleabi_for_x86_64-pc-linux-gnu/bin/../lib/gcc/riscv64-unknown-linux-musl/10.1.0/../../../../riscv64-unknown-linux-musl/lib/libc.a(syscall.o)
 *fill*         0x0000000200010072        0x6 
 .rodata.__FUNCTION__.42
                0x0000000200010078       0x12 /home/zbtrs/ospp/rt-thread/bsp/toolchain/riscv64-linux-musleabi_for_x86_64-pc-linux-gnu/bin/../lib/gcc/riscv64-unknown-linux-musl/10.1.0/../../../../riscv64-unknown-linux-musl/lib/libc.a(syscall.o)
 *fill*         0x000000020001008a        0x6 
 .rodata.__FUNCTION__.43
                0x0000000200010090        0xe /home/zbtrs/ospp/rt-thread/bsp/toolchain/riscv64-linux-musleabi_for_x86_64-pc-linux-gnu/bin/../lib/gcc/riscv64-unknown-linux-musl/10.1.0/../../../../riscv64-unknown-linux-musl/lib/libc.a(syscall.o)
 *fill*         0x000000020001009e        0x2 
 .rodata.__FUNCTION__.44
                0x00000002000100a0       0x10 /home/zbtrs/ospp/rt-thread/bsp/toolchain/riscv64-linux-musleabi_for_x86_64-pc-linux-gnu/bin/../lib/gcc/riscv64-unknown-linux-musl/10.1.0/../../../../riscv64-unknown-linux-musl/lib/libc.a(syscall.o)
 .rodata.__FUNCTION__.45
                0x00000002000100b0        0xe /home/zbtrs/ospp/rt-thread/bsp/toolchain/riscv64-linux-musleabi_for_x86_64-pc-linux-gnu/bin/../lib/gcc/riscv64-unknown-linux-musl/10.1.0/../../../../riscv64-unknown-linux-musl/lib/libc.a(syscall.o)
 *fill*         0x00000002000100be        0x2 
 .rodata.__FUNCTION__.46
                0x00000002000100c0       0x10 /home/zbtrs/ospp/rt-thread/bsp/toolchain/riscv64-linux-musleabi_for_x86_64-pc-linux-gnu/bin/../lib/gcc/riscv64-unknown-linux-musl/10.1.0/../../../../riscv64-unknown-linux-musl/lib/libc.a(syscall.o)
 .rodata.__FUNCTION__.47
                0x00000002000100d0       0x12 /home/zbtrs/ospp/rt-thread/bsp/toolchain/riscv64-linux-musleabi_for_x86_64-pc-linux-gnu/bin/../lib/gcc/riscv64-unknown-linux-musl/10.1.0/../../../../riscv64-unknown-linux-musl/lib/libc.a(syscall.o)
 *fill*         0x00000002000100e2        0x6 
 .rodata.__FUNCTION__.48
                0x00000002000100e8        0xe /home/zbtrs/ospp/rt-thread/bsp/toolchain/riscv64-linux-musleabi_for_x86_64-pc-linux-gnu/bin/../lib/gcc/riscv64-unknown-linux-musl/10.1.0/../../../../riscv64-unknown-linux-musl/lib/libc.a(syscall.o)
 *fill*         0x00000002000100f6        0x2 
 .rodata.__FUNCTION__.49
                0x00000002000100f8       0x16 /home/zbtrs/ospp/rt-thread/bsp/toolchain/riscv64-linux-musleabi_for_x86_64-pc-linux-gnu/bin/../lib/gcc/riscv64-unknown-linux-musl/10.1.0/../../../../riscv64-unknown-linux-musl/lib/libc.a(syscall.o)
 *fill*         0x000000020001010e        0x2 
 .rodata.__FUNCTION__.5
                0x0000000200010110        0xf /home/zbtrs/ospp/rt-thread/bsp/toolchain/riscv64-linux-musleabi_for_x86_64-pc-linux-gnu/bin/../lib/gcc/riscv64-unknown-linux-musl/10.1.0/../../../../riscv64-unknown-linux-musl/lib/libc.a(syscall.o)
 *fill*         0x000000020001011f        0x1 
 .rodata.__FUNCTION__.50
                0x0000000200010120       0x11 /home/zbtrs/ospp/rt-thread/bsp/toolchain/riscv64-linux-musleabi_for_x86_64-pc-linux-gnu/bin/../lib/gcc/riscv64-unknown-linux-musl/10.1.0/../../../../riscv64-unknown-linux-musl/lib/libc.a(syscall.o)
 *fill*         0x0000000200010131        0x7 
 .rodata.__FUNCTION__.51
                0x0000000200010138       0x11 /home/zbtrs/ospp/rt-thread/bsp/toolchain/riscv64-linux-musleabi_for_x86_64-pc-linux-gnu/bin/../lib/gcc/riscv64-unknown-linux-musl/10.1.0/../../../../riscv64-unknown-linux-musl/lib/libc.a(syscall.o)
 *fill*         0x0000000200010149        0x7 
 .rodata.__FUNCTION__.52
                0x0000000200010150       0x14 /home/zbtrs/ospp/rt-thread/bsp/toolchain/riscv64-linux-musleabi_for_x86_64-pc-linux-gnu/bin/../lib/gcc/riscv64-unknown-linux-musl/10.1.0/../../../../riscv64-unknown-linux-musl/lib/libc.a(syscall.o)
 *fill*         0x0000000200010164        0x4 
 .rodata.__FUNCTION__.53
                0x0000000200010168       0x16 /home/zbtrs/ospp/rt-thread/bsp/toolchain/riscv64-linux-musleabi_for_x86_64-pc-linux-gnu/bin/../lib/gcc/riscv64-unknown-linux-musl/10.1.0/../../../../riscv64-unknown-linux-musl/lib/libc.a(syscall.o)
 *fill*         0x000000020001017e        0x2 
 .rodata.__FUNCTION__.54
                0x0000000200010180       0x11 /home/zbtrs/ospp/rt-thread/bsp/toolchain/riscv64-linux-musleabi_for_x86_64-pc-linux-gnu/bin/../lib/gcc/riscv64-unknown-linux-musl/10.1.0/../../../../riscv64-unknown-linux-musl/lib/libc.a(syscall.o)
 *fill*         0x0000000200010191        0x7 
 .rodata.__FUNCTION__.55
                0x0000000200010198       0x10 /home/zbtrs/ospp/rt-thread/bsp/toolchain/riscv64-linux-musleabi_for_x86_64-pc-linux-gnu/bin/../lib/gcc/riscv64-unknown-linux-musl/10.1.0/../../../../riscv64-unknown-linux-musl/lib/libc.a(syscall.o)
 .rodata.__FUNCTION__.56
                0x00000002000101a8        0xf /home/zbtrs/ospp/rt-thread/bsp/toolchain/riscv64-linux-musleabi_for_x86_64-pc-linux-gnu/bin/../lib/gcc/riscv64-unknown-linux-musl/10.1.0/../../../../riscv64-unknown-linux-musl/lib/libc.a(syscall.o)
 *fill*         0x00000002000101b7        0x1 
 .rodata.__FUNCTION__.57
                0x00000002000101b8       0x10 /home/zbtrs/ospp/rt-thread/bsp/toolchain/riscv64-linux-musleabi_for_x86_64-pc-linux-gnu/bin/../lib/gcc/riscv64-unknown-linux-musl/10.1.0/../../../../riscv64-unknown-linux-musl/lib/libc.a(syscall.o)
 .rodata.__FUNCTION__.58
                0x00000002000101c8        0xe /home/zbtrs/ospp/rt-thread/bsp/toolchain/riscv64-linux-musleabi_for_x86_64-pc-linux-gnu/bin/../lib/gcc/riscv64-unknown-linux-musl/10.1.0/../../../../riscv64-unknown-linux-musl/lib/libc.a(syscall.o)
 *fill*         0x00000002000101d6        0x2 
 .rodata.__FUNCTION__.59
                0x00000002000101d8       0x14 /home/zbtrs/ospp/rt-thread/bsp/toolchain/riscv64-linux-musleabi_for_x86_64-pc-linux-gnu/bin/../lib/gcc/riscv64-unknown-linux-musl/10.1.0/../../../../riscv64-unknown-linux-musl/lib/libc.a(syscall.o)
 *fill*         0x00000002000101ec        0x4 
 .rodata.__FUNCTION__.6
                0x00000002000101f0        0xf /home/zbtrs/ospp/rt-thread/bsp/toolchain/riscv64-linux-musleabi_for_x86_64-pc-linux-gnu/bin/../lib/gcc/riscv64-unknown-linux-musl/10.1.0/../../../../riscv64-unknown-linux-musl/lib/libc.a(syscall.o)
 *fill*         0x00000002000101ff        0x1 
 .rodata.__FUNCTION__.60
                0x0000000200010200       0x11 /home/zbtrs/ospp/rt-thread/bsp/toolchain/riscv64-linux-musleabi_for_x86_64-pc-linux-gnu/bin/../lib/gcc/riscv64-unknown-linux-musl/10.1.0/../../../../riscv64-unknown-linux-musl/lib/libc.a(syscall.o)
 *fill*         0x0000000200010211        0x7 
 .rodata.__FUNCTION__.61
                0x0000000200010218       0x11 /home/zbtrs/ospp/rt-thread/bsp/toolchain/riscv64-linux-musleabi_for_x86_64-pc-linux-gnu/bin/../lib/gcc/riscv64-unknown-linux-musl/10.1.0/../../../../riscv64-unknown-linux-musl/lib/libc.a(syscall.o)
 *fill*         0x0000000200010229        0x7 
 .rodata.__FUNCTION__.62
                0x0000000200010230        0xe /home/zbtrs/ospp/rt-thread/bsp/toolchain/riscv64-linux-musleabi_for_x86_64-pc-linux-gnu/bin/../lib/gcc/riscv64-unknown-linux-musl/10.1.0/../../../../riscv64-unknown-linux-musl/lib/libc.a(syscall.o)
 *fill*         0x000000020001023e        0x2 
 .rodata.__FUNCTION__.63
                0x0000000200010240        0xe /home/zbtrs/ospp/rt-thread/bsp/toolchain/riscv64-linux-musleabi_for_x86_64-pc-linux-gnu/bin/../lib/gcc/riscv64-unknown-linux-musl/10.1.0/../../../../riscv64-unknown-linux-musl/lib/libc.a(syscall.o)
 *fill*         0x000000020001024e        0x2 
 .rodata.__FUNCTION__.64
                0x0000000200010250        0xf /home/zbtrs/ospp/rt-thread/bsp/toolchain/riscv64-linux-musleabi_for_x86_64-pc-linux-gnu/bin/../lib/gcc/riscv64-unknown-linux-musl/10.1.0/../../../../riscv64-unknown-linux-musl/lib/libc.a(syscall.o)
 *fill*         0x000000020001025f        0x1 
 .rodata.__FUNCTION__.65
                0x0000000200010260       0x12 /home/zbtrs/ospp/rt-thread/bsp/toolchain/riscv64-linux-musleabi_for_x86_64-pc-linux-gnu/bin/../lib/gcc/riscv64-unknown-linux-musl/10.1.0/../../../../riscv64-unknown-linux-musl/lib/libc.a(syscall.o)
 *fill*         0x0000000200010272        0x6 
 .rodata.__FUNCTION__.66
                0x0000000200010278       0x10 /home/zbtrs/ospp/rt-thread/bsp/toolchain/riscv64-linux-musleabi_for_x86_64-pc-linux-gnu/bin/../lib/gcc/riscv64-unknown-linux-musl/10.1.0/../../../../riscv64-unknown-linux-musl/lib/libc.a(syscall.o)
 .rodata.__FUNCTION__.67
                0x0000000200010288        0xe /home/zbtrs/ospp/rt-thread/bsp/toolchain/riscv64-linux-musleabi_for_x86_64-pc-linux-gnu/bin/../lib/gcc/riscv64-unknown-linux-musl/10.1.0/../../../../riscv64-unknown-linux-musl/lib/libc.a(syscall.o)
 *fill*         0x0000000200010296        0x2 
 .rodata.__FUNCTION__.68
                0x0000000200010298       0x10 /home/zbtrs/ospp/rt-thread/bsp/toolchain/riscv64-linux-musleabi_for_x86_64-pc-linux-gnu/bin/../lib/gcc/riscv64-unknown-linux-musl/10.1.0/../../../../riscv64-unknown-linux-musl/lib/libc.a(syscall.o)
 .rodata.__FUNCTION__.69
                0x00000002000102a8       0x11 /home/zbtrs/ospp/rt-thread/bsp/toolchain/riscv64-linux-musleabi_for_x86_64-pc-linux-gnu/bin/../lib/gcc/riscv64-unknown-linux-musl/10.1.0/../../../../riscv64-unknown-linux-musl/lib/libc.a(syscall.o)
 *fill*         0x00000002000102b9        0x7 
 .rodata.__FUNCTION__.7
                0x00000002000102c0        0xe /home/zbtrs/ospp/rt-thread/bsp/toolchain/riscv64-linux-musleabi_for_x86_64-pc-linux-gnu/bin/../lib/gcc/riscv64-unknown-linux-musl/10.1.0/../../../../riscv64-unknown-linux-musl/lib/libc.a(syscall.o)
 *fill*         0x00000002000102ce        0x2 
 .rodata.__FUNCTION__.70
                0x00000002000102d0       0x13 /home/zbtrs/ospp/rt-thread/bsp/toolchain/riscv64-linux-musleabi_for_x86_64-pc-linux-gnu/bin/../lib/gcc/riscv64-unknown-linux-musl/10.1.0/../../../../riscv64-unknown-linux-musl/lib/libc.a(syscall.o)
 *fill*         0x00000002000102e3        0x5 
 .rodata.__FUNCTION__.71
                0x00000002000102e8       0x1e /home/zbtrs/ospp/rt-thread/bsp/toolchain/riscv64-linux-musleabi_for_x86_64-pc-linux-gnu/bin/../lib/gcc/riscv64-unknown-linux-musl/10.1.0/../../../../riscv64-unknown-linux-musl/lib/libc.a(syscall.o)
 *fill*         0x0000000200010306        0x2 
 .rodata.__FUNCTION__.72
                0x0000000200010308       0x12 /home/zbtrs/ospp/rt-thread/bsp/toolchain/riscv64-linux-musleabi_for_x86_64-pc-linux-gnu/bin/../lib/gcc/riscv64-unknown-linux-musl/10.1.0/../../../../riscv64-unknown-linux-musl/lib/libc.a(syscall.o)
 *fill*         0x000000020001031a        0x6 
 .rodata.__FUNCTION__.73
                0x0000000200010320       0x12 /home/zbtrs/ospp/rt-thread/bsp/toolchain/riscv64-linux-musleabi_for_x86_64-pc-linux-gnu/bin/../lib/gcc/riscv64-unknown-linux-musl/10.1.0/../../../../riscv64-unknown-linux-musl/lib/libc.a(syscall.o)
 *fill*         0x0000000200010332        0x6 
 .rodata.__FUNCTION__.74
                0x0000000200010338       0x13 /home/zbtrs/ospp/rt-thread/bsp/toolchain/riscv64-linux-musleabi_for_x86_64-pc-linux-gnu/bin/../lib/gcc/riscv64-unknown-linux-musl/10.1.0/../../../../riscv64-unknown-linux-musl/lib/libc.a(syscall.o)
 *fill*         0x000000020001034b        0x5 
 .rodata.__FUNCTION__.75
                0x0000000200010350       0x12 /home/zbtrs/ospp/rt-thread/bsp/toolchain/riscv64-linux-musleabi_for_x86_64-pc-linux-gnu/bin/../lib/gcc/riscv64-unknown-linux-musl/10.1.0/../../../../riscv64-unknown-linux-musl/lib/libc.a(syscall.o)
 *fill*         0x0000000200010362        0x6 
 .rodata.__FUNCTION__.76
                0x0000000200010368       0x12 /home/zbtrs/ospp/rt-thread/bsp/toolchain/riscv64-linux-musleabi_for_x86_64-pc-linux-gnu/bin/../lib/gcc/riscv64-unknown-linux-musl/10.1.0/../../../../riscv64-unknown-linux-musl/lib/libc.a(syscall.o)
 *fill*         0x000000020001037a        0x6 
 .rodata.__FUNCTION__.77
                0x0000000200010380        0xe /home/zbtrs/ospp/rt-thread/bsp/toolchain/riscv64-linux-musleabi_for_x86_64-pc-linux-gnu/bin/../lib/gcc/riscv64-unknown-linux-musl/10.1.0/../../../../riscv64-unknown-linux-musl/lib/libc.a(syscall.o)
 *fill*         0x000000020001038e        0x2 
 .rodata.__FUNCTION__.78
                0x0000000200010390       0x15 /home/zbtrs/ospp/rt-thread/bsp/toolchain/riscv64-linux-musleabi_for_x86_64-pc-linux-gnu/bin/../lib/gcc/riscv64-unknown-linux-musl/10.1.0/../../../../riscv64-unknown-linux-musl/lib/libc.a(syscall.o)
 *fill*         0x00000002000103a5        0x3 
 .rodata.__FUNCTION__.79
                0x00000002000103a8       0x16 /home/zbtrs/ospp/rt-thread/bsp/toolchain/riscv64-linux-musleabi_for_x86_64-pc-linux-gnu/bin/../lib/gcc/riscv64-unknown-linux-musl/10.1.0/../../../../riscv64-unknown-linux-musl/lib/libc.a(syscall.o)
 *fill*         0x00000002000103be        0x2 
 .rodata.__FUNCTION__.8
                0x00000002000103c0        0xd /home/zbtrs/ospp/rt-thread/bsp/toolchain/riscv64-linux-musleabi_for_x86_64-pc-linux-gnu/bin/../lib/gcc/riscv64-unknown-linux-musl/10.1.0/../../../../riscv64-unknown-linux-musl/lib/libc.a(syscall.o)
 *fill*         0x00000002000103cd        0x3 
 .rodata.__FUNCTION__.80
                0x00000002000103d0       0x18 /home/zbtrs/ospp/rt-thread/bsp/toolchain/riscv64-linux-musleabi_for_x86_64-pc-linux-gnu/bin/../lib/gcc/riscv64-unknown-linux-musl/10.1.0/../../../../riscv64-unknown-linux-musl/lib/libc.a(syscall.o)
 .rodata.__FUNCTION__.81
                0x00000002000103e8       0x18 /home/zbtrs/ospp/rt-thread/bsp/toolchain/riscv64-linux-musleabi_for_x86_64-pc-linux-gnu/bin/../lib/gcc/riscv64-unknown-linux-musl/10.1.0/../../../../riscv64-unknown-linux-musl/lib/libc.a(syscall.o)
 .rodata.__FUNCTION__.82
                0x0000000200010400       0x16 /home/zbtrs/ospp/rt-thread/bsp/toolchain/riscv64-linux-musleabi_for_x86_64-pc-linux-gnu/bin/../lib/gcc/riscv64-unknown-linux-musl/10.1.0/../../../../riscv64-unknown-linux-musl/lib/libc.a(syscall.o)
 *fill*         0x0000000200010416        0x2 
 .rodata.__FUNCTION__.83
                0x0000000200010418       0x10 /home/zbtrs/ospp/rt-thread/bsp/toolchain/riscv64-linux-musleabi_for_x86_64-pc-linux-gnu/bin/../lib/gcc/riscv64-unknown-linux-musl/10.1.0/../../../../riscv64-unknown-linux-musl/lib/libc.a(syscall.o)
 .rodata.__FUNCTION__.84
                0x0000000200010428       0x11 /home/zbtrs/ospp/rt-thread/bsp/toolchain/riscv64-linux-musleabi_for_x86_64-pc-linux-gnu/bin/../lib/gcc/riscv64-unknown-linux-musl/10.1.0/../../../../riscv64-unknown-linux-musl/lib/libc.a(syscall.o)
 *fill*         0x0000000200010439        0x7 
 .rodata.__FUNCTION__.85
                0x0000000200010440        0xe /home/zbtrs/ospp/rt-thread/bsp/toolchain/riscv64-linux-musleabi_for_x86_64-pc-linux-gnu/bin/../lib/gcc/riscv64-unknown-linux-musl/10.1.0/../../../../riscv64-unknown-linux-musl/lib/libc.a(syscall.o)
 *fill*         0x000000020001044e        0x2 
 .rodata.__FUNCTION__.86
                0x0000000200010450        0xf /home/zbtrs/ospp/rt-thread/bsp/toolchain/riscv64-linux-musleabi_for_x86_64-pc-linux-gnu/bin/../lib/gcc/riscv64-unknown-linux-musl/10.1.0/../../../../riscv64-unknown-linux-musl/lib/libc.a(syscall.o)
 *fill*         0x000000020001045f        0x1 
 .rodata.__FUNCTION__.87
                0x0000000200010460        0xf /home/zbtrs/ospp/rt-thread/bsp/toolchain/riscv64-linux-musleabi_for_x86_64-pc-linux-gnu/bin/../lib/gcc/riscv64-unknown-linux-musl/10.1.0/../../../../riscv64-unknown-linux-musl/lib/libc.a(syscall.o)
 *fill*         0x000000020001046f        0x1 
 .rodata.__FUNCTION__.88
                0x0000000200010470       0x14 /home/zbtrs/ospp/rt-thread/bsp/toolchain/riscv64-linux-musleabi_for_x86_64-pc-linux-gnu/bin/../lib/gcc/riscv64-unknown-linux-musl/10.1.0/../../../../riscv64-unknown-linux-musl/lib/libc.a(syscall.o)
 *fill*         0x0000000200010484        0x4 
 .rodata.__FUNCTION__.89
                0x0000000200010488       0x11 /home/zbtrs/ospp/rt-thread/bsp/toolchain/riscv64-linux-musleabi_for_x86_64-pc-linux-gnu/bin/../lib/gcc/riscv64-unknown-linux-musl/10.1.0/../../../../riscv64-unknown-linux-musl/lib/libc.a(syscall.o)
 *fill*         0x0000000200010499        0x7 
 .rodata.__FUNCTION__.9
                0x00000002000104a0        0xd /home/zbtrs/ospp/rt-thread/bsp/toolchain/riscv64-linux-musleabi_for_x86_64-pc-linux-gnu/bin/../lib/gcc/riscv64-unknown-linux-musl/10.1.0/../../../../riscv64-unknown-linux-musl/lib/libc.a(syscall.o)
 *fill*         0x00000002000104ad        0x3 
 .rodata.__FUNCTION__.90
                0x00000002000104b0       0x13 /home/zbtrs/ospp/rt-thread/bsp/toolchain/riscv64-linux-musleabi_for_x86_64-pc-linux-gnu/bin/../lib/gcc/riscv64-unknown-linux-musl/10.1.0/../../../../riscv64-unknown-linux-musl/lib/libc.a(syscall.o)
 *fill*         0x00000002000104c3        0x5 
 .rodata.__FUNCTION__.91
                0x00000002000104c8       0x14 /home/zbtrs/ospp/rt-thread/bsp/toolchain/riscv64-linux-musleabi_for_x86_64-pc-linux-gnu/bin/../lib/gcc/riscv64-unknown-linux-musl/10.1.0/../../../../riscv64-unknown-linux-musl/lib/libc.a(syscall.o)
 *fill*         0x00000002000104dc        0x4 
 .rodata.__FUNCTION__.92
                0x00000002000104e0       0x11 /home/zbtrs/ospp/rt-thread/bsp/toolchain/riscv64-linux-musleabi_for_x86_64-pc-linux-gnu/bin/../lib/gcc/riscv64-unknown-linux-musl/10.1.0/../../../../riscv64-unknown-linux-musl/lib/libc.a(syscall.o)
 *fill*         0x00000002000104f1        0x7 
 .rodata.__FUNCTION__.93
                0x00000002000104f8       0x11 /home/zbtrs/ospp/rt-thread/bsp/toolchain/riscv64-linux-musleabi_for_x86_64-pc-linux-gnu/bin/../lib/gcc/riscv64-unknown-linux-musl/10.1.0/../../../../riscv64-unknown-linux-musl/lib/libc.a(syscall.o)
 *fill*         0x0000000200010509        0x7 
 .rodata.__FUNCTION__.94
                0x0000000200010510       0x11 /home/zbtrs/ospp/rt-thread/bsp/toolchain/riscv64-linux-musleabi_for_x86_64-pc-linux-gnu/bin/../lib/gcc/riscv64-unknown-linux-musl/10.1.0/../../../../riscv64-unknown-linux-musl/lib/libc.a(syscall.o)
 *fill*         0x0000000200010521        0x7 
 .rodata.__FUNCTION__.95
                0x0000000200010528       0x12 /home/zbtrs/ospp/rt-thread/bsp/toolchain/riscv64-linux-musleabi_for_x86_64-pc-linux-gnu/bin/../lib/gcc/riscv64-unknown-linux-musl/10.1.0/../../../../riscv64-unknown-linux-musl/lib/libc.a(syscall.o)
 *fill*         0x000000020001053a        0x6 
 .rodata.__FUNCTION__.96
                0x0000000200010540       0x12 /home/zbtrs/ospp/rt-thread/bsp/toolchain/riscv64-linux-musleabi_for_x86_64-pc-linux-gnu/bin/../lib/gcc/riscv64-unknown-linux-musl/10.1.0/../../../../riscv64-unknown-linux-musl/lib/libc.a(syscall.o)
 *fill*         0x0000000200010552        0x6 
 .rodata.__FUNCTION__.97
                0x0000000200010558       0x13 /home/zbtrs/ospp/rt-thread/bsp/toolchain/riscv64-linux-musleabi_for_x86_64-pc-linux-gnu/bin/../lib/gcc/riscv64-unknown-linux-musl/10.1.0/../../../../riscv64-unknown-linux-musl/lib/libc.a(syscall.o)
 *fill*         0x000000020001056b        0x5 
 .rodata.__FUNCTION__.98
                0x0000000200010570       0x13 /home/zbtrs/ospp/rt-thread/bsp/toolchain/riscv64-linux-musleabi_for_x86_64-pc-linux-gnu/bin/../lib/gcc/riscv64-unknown-linux-musl/10.1.0/../../../../riscv64-unknown-linux-musl/lib/libc.a(syscall.o)
 *fill*         0x0000000200010583        0x5 
 .rodata.__FUNCTION__.99
                0x0000000200010588       0x14 /home/zbtrs/ospp/rt-thread/bsp/toolchain/riscv64-linux-musleabi_for_x86_64-pc-linux-gnu/bin/../lib/gcc/riscv64-unknown-linux-musl/10.1.0/../../../../riscv64-unknown-linux-musl/lib/libc.a(syscall.o)
 *fill*         0x000000020001059c        0x4 
 .rodata.syscall_table
                0x00000002000105a0      0xc88 /home/zbtrs/ospp/rt-thread/bsp/toolchain/riscv64-linux-musleabi_for_x86_64-pc-linux-gnu/bin/../lib/gcc/riscv64-unknown-linux-musl/10.1.0/../../../../riscv64-unknown-linux-musl/lib/libc.a(syscall.o)
 .rodata.bin_tab
                0x0000000200011228       0x3c /home/zbtrs/ospp/rt-thread/bsp/toolchain/riscv64-linux-musleabi_for_x86_64-pc-linux-gnu/bin/../lib/gcc/riscv64-unknown-linux-musl/10.1.0/../../../../riscv64-unknown-linux-musl/lib/libc.a(malloc.o)
 *fill*         0x0000000200011264        0x4 
 .rodata.debruijn64.0
                0x0000000200011268       0x40 /home/zbtrs/ospp/rt-thread/bsp/toolchain/riscv64-linux-musleabi_for_x86_64-pc-linux-gnu/bin/../lib/gcc/riscv64-unknown-linux-musl/10.1.0/../../../../riscv64-unknown-linux-musl/lib/libc.a(malloc.o)
 .rodata.__getopt_long.str1.8
                0x00000002000112a8       0x78 /home/zbtrs/ospp/rt-thread/bsp/toolchain/riscv64-linux-musleabi_for_x86_64-pc-linux-gnu/bin/../lib/gcc/riscv64-unknown-linux-musl/10.1.0/../../../../riscv64-unknown-linux-musl/lib/libc.a(getopt_long.o)
 .rodata.pop_arg
                0x0000000200011320       0x48 /home/zbtrs/ospp/rt-thread/bsp/toolchain/riscv64-linux-musleabi_for_x86_64-pc-linux-gnu/bin/../lib/gcc/riscv64-unknown-linux-musl/10.1.0/../../../../riscv64-unknown-linux-musl/lib/libc.a(vfprintf.o)
 .rodata.fmt_fp.str1.8
                0x0000000200011368       0x3a /home/zbtrs/ospp/rt-thread/bsp/toolchain/riscv64-linux-musleabi_for_x86_64-pc-linux-gnu/bin/../lib/gcc/riscv64-unknown-linux-musl/10.1.0/../../../../riscv64-unknown-linux-musl/lib/libc.a(vfprintf.o)
 *fill*         0x00000002000113a2        0x6 
 .rodata.printf_core.str1.8
                0x00000002000113a8       0x17 /home/zbtrs/ospp/rt-thread/bsp/toolchain/riscv64-linux-musleabi_for_x86_64-pc-linux-gnu/bin/../lib/gcc/riscv64-unknown-linux-musl/10.1.0/../../../../riscv64-unknown-linux-musl/lib/libc.a(vfprintf.o)
 *fill*         0x00000002000113bf        0x1 
 .rodata.printf_core
                0x00000002000113c0      0x100 /home/zbtrs/ospp/rt-thread/bsp/toolchain/riscv64-linux-musleabi_for_x86_64-pc-linux-gnu/bin/../lib/gcc/riscv64-unknown-linux-musl/10.1.0/../../../../riscv64-unknown-linux-musl/lib/libc.a(vfprintf.o)
 *fill*         0x00000002000114c0        0x0 
 .rodata.cst16  0x00000002000114c0       0x80 /home/zbtrs/ospp/rt-thread/bsp/toolchain/riscv64-linux-musleabi_for_x86_64-pc-linux-gnu/bin/../lib/gcc/riscv64-unknown-linux-musl/10.1.0/../../../../riscv64-unknown-linux-musl/lib/libc.a(vfprintf.o)
 .rodata.states
                0x0000000200011540      0x1d0 /home/zbtrs/ospp/rt-thread/bsp/toolchain/riscv64-linux-musleabi_for_x86_64-pc-linux-gnu/bin/../lib/gcc/riscv64-unknown-linux-musl/10.1.0/../../../../riscv64-unknown-linux-musl/lib/libc.a(vfprintf.o)
 .rodata.xdigits
                0x0000000200011710       0x10 /home/zbtrs/ospp/rt-thread/bsp/toolchain/riscv64-linux-musleabi_for_x86_64-pc-linux-gnu/bin/../lib/gcc/riscv64-unknown-linux-musl/10.1.0/../../../../riscv64-unknown-linux-musl/lib/libc.a(vfprintf.o)
 .rodata.cst16  0x0000000200011720       0x10 /home/zbtrs/ospp/rt-thread/bsp/toolchain/riscv64-linux-musleabi_for_x86_64-pc-linux-gnu/bin/../lib/gcc/riscv64-unknown-linux-musl/10.1.0/../../../../riscv64-unknown-linux-musl/lib/libc.a(frexpl.o)
 .rodata.getopt.str1.8
                0x0000000200011730       0x38 /home/zbtrs/ospp/rt-thread/bsp/toolchain/riscv64-linux-musleabi_for_x86_64-pc-linux-gnu/bin/../lib/gcc/riscv64-unknown-linux-musl/10.1.0/../../../../riscv64-unknown-linux-musl/lib/libc.a(getopt.o)
 .rodata.__fsmu8
                0x0000000200011730       0xcc /home/zbtrs/ospp/rt-thread/bsp/toolchain/riscv64-linux-musleabi_for_x86_64-pc-linux-gnu/bin/../lib/gcc/riscv64-unknown-linux-musl/10.1.0/../../../../riscv64-unknown-linux-musl/lib/libc.a(internal.o)
                0x0000000200011730                __fsmu8
 .rodata        0x00000002000117fc       0x40 /home/zbtrs/ospp/rt-thread/bsp/toolchain/riscv64-linux-musleabi_for_x86_64-pc-linux-gnu/bin/../lib/gcc/riscv64-unknown-linux-musl/10.1.0/libgcc.a(multf3.o)
 *fill*         0x000000020001183c        0x4 
 .rodata        0x0000000200011840      0x100 /home/zbtrs/ospp/rt-thread/bsp/toolchain/riscv64-linux-musleabi_for_x86_64-pc-linux-gnu/bin/../lib/gcc/riscv64-unknown-linux-musl/10.1.0/libgcc.a(_clz.o)
                0x0000000200011840                __clz_tab
 *(.eh_frame*)
 .eh_frame      0x0000000200011940        0x0 /home/zbtrs/ospp/rt-thread/bsp/toolchain/riscv64-linux-musleabi_for_x86_64-pc-linux-gnu/bin/../lib/gcc/riscv64-unknown-linux-musl/10.1.0/crtbeginT.o
 .eh_frame      0x0000000200011940        0x4 /home/zbtrs/ospp/rt-thread/bsp/toolchain/riscv64-linux-musleabi_for_x86_64-pc-linux-gnu/bin/../lib/gcc/riscv64-unknown-linux-musl/10.1.0/crtend.o
                0x0000000200011948                . = ALIGN (0x8)
 *fill*         0x0000000200011944        0x4 
                0x0000000200011948                _etext = .
                0x0000000200011948                __text_end__ = .

.srodata.cst8   0x0000000200011948       0x28
 .srodata.cst8  0x0000000200011948        0x8 /home/zbtrs/ospp/rt-thread/bsp/toolchain/riscv64-linux-musleabi_for_x86_64-pc-linux-gnu/bin/../lib/gcc/riscv64-unknown-linux-musl/10.1.0/../../../../riscv64-unknown-linux-musl/lib/libc.a(malloc.o)
 .srodata.cst8  0x0000000200011950        0x8 /home/zbtrs/ospp/rt-thread/bsp/toolchain/riscv64-linux-musleabi_for_x86_64-pc-linux-gnu/bin/../lib/gcc/riscv64-unknown-linux-musl/10.1.0/../../../../riscv64-unknown-linux-musl/lib/libc.a(rand.o)
 .srodata.cst8  0x0000000200011958       0x10 /home/zbtrs/ospp/rt-thread/bsp/toolchain/riscv64-linux-musleabi_for_x86_64-pc-linux-gnu/bin/../lib/gcc/riscv64-unknown-linux-musl/10.1.0/../../../../riscv64-unknown-linux-musl/lib/libc.a(strlen.o)
 .srodata.cst8  0x0000000200011968        0x8 /home/zbtrs/ospp/rt-thread/bsp/toolchain/riscv64-linux-musleabi_for_x86_64-pc-linux-gnu/bin/../lib/gcc/riscv64-unknown-linux-musl/10.1.0/../../../../riscv64-unknown-linux-musl/lib/libc.a(memchr.o)
                                         0x18 (size before relaxing)
 .srodata.cst8  0x0000000200011970       0x10 /home/zbtrs/ospp/rt-thread/bsp/toolchain/riscv64-linux-musleabi_for_x86_64-pc-linux-gnu/bin/../lib/gcc/riscv64-unknown-linux-musl/10.1.0/../../../../riscv64-unknown-linux-musl/lib/libc.a(stpncpy.o)
 .srodata.cst8  0x0000000200011970       0x18 /home/zbtrs/ospp/rt-thread/bsp/toolchain/riscv64-linux-musleabi_for_x86_64-pc-linux-gnu/bin/../lib/gcc/riscv64-unknown-linux-musl/10.1.0/../../../../riscv64-unknown-linux-musl/lib/libc.a(strchrnul.o)

.srodata.stderr
                0x0000000200011970        0x8
 .srodata.stderr
                0x0000000200011970        0x8 /home/zbtrs/ospp/rt-thread/bsp/toolchain/riscv64-linux-musleabi_for_x86_64-pc-linux-gnu/bin/../lib/gcc/riscv64-unknown-linux-musl/10.1.0/../../../../riscv64-unknown-linux-musl/lib/libc.a(stderr.o)
                0x0000000200011970                stderr

.srodata.stdout
                0x0000000200011978        0x8
 .srodata.stdout
                0x0000000200011978        0x8 /home/zbtrs/ospp/rt-thread/bsp/toolchain/riscv64-linux-musleabi_for_x86_64-pc-linux-gnu/bin/../lib/gcc/riscv64-unknown-linux-musl/10.1.0/../../../../riscv64-unknown-linux-musl/lib/libc.a(stdout.o)
                0x0000000200011978                stdout

.srodata.all_mask
                0x0000000200011980        0x8
 .srodata.all_mask
                0x0000000200011980        0x8 /home/zbtrs/ospp/rt-thread/bsp/toolchain/riscv64-linux-musleabi_for_x86_64-pc-linux-gnu/bin/../lib/gcc/riscv64-unknown-linux-musl/10.1.0/../../../../riscv64-unknown-linux-musl/lib/libc.a(block.o)

.srodata.app_mask
                0x0000000200011988        0x8
 .srodata.app_mask
                0x0000000200011988        0x8 /home/zbtrs/ospp/rt-thread/bsp/toolchain/riscv64-linux-musleabi_for_x86_64-pc-linux-gnu/bin/../lib/gcc/riscv64-unknown-linux-musl/10.1.0/../../../../riscv64-unknown-linux-musl/lib/libc.a(block.o)
                0x0000000200012000                . = ALIGN (0x1000)

.rela.dyn       0x0000000200012000        0x0
 *(.rela.init)
 *(.rela.text .rela.text.* .rela.gnu.linkonce.t.*)
 .rela.text._start_c
                0x0000000200012000        0x0 /home/zbtrs/ospp/rt-thread/bsp/toolchain/riscv64-linux-musleabi_for_x86_64-pc-linux-gnu/bin/../lib/gcc/riscv64-unknown-linux-musl/10.1.0/../../../../riscv64-unknown-linux-musl/lib/crt1.o
 .rela.text     0x0000000200012000        0x0 /home/zbtrs/ospp/rt-thread/bsp/toolchain/riscv64-linux-musleabi_for_x86_64-pc-linux-gnu/bin/../lib/gcc/riscv64-unknown-linux-musl/10.1.0/../../../../riscv64-unknown-linux-musl/lib/crt1.o
 .rela.text.__init_libc
                0x0000000200012000        0x0 /home/zbtrs/ospp/rt-thread/bsp/toolchain/riscv64-linux-musleabi_for_x86_64-pc-linux-gnu/bin/../lib/gcc/riscv64-unknown-linux-musl/10.1.0/../../../../riscv64-unknown-linux-musl/lib/crt1.o
 .rela.text.libc_start_init
                0x0000000200012000        0x0 /home/zbtrs/ospp/rt-thread/bsp/toolchain/riscv64-linux-musleabi_for_x86_64-pc-linux-gnu/bin/../lib/gcc/riscv64-unknown-linux-musl/10.1.0/../../../../riscv64-unknown-linux-musl/lib/crt1.o
 .rela.text.libc_start_main_stage2
                0x0000000200012000        0x0 /home/zbtrs/ospp/rt-thread/bsp/toolchain/riscv64-linux-musleabi_for_x86_64-pc-linux-gnu/bin/../lib/gcc/riscv64-unknown-linux-musl/10.1.0/../../../../riscv64-unknown-linux-musl/lib/crt1.o
 .rela.text.libc_exit_fini
                0x0000000200012000        0x0 /home/zbtrs/ospp/rt-thread/bsp/toolchain/riscv64-linux-musleabi_for_x86_64-pc-linux-gnu/bin/../lib/gcc/riscv64-unknown-linux-musl/10.1.0/../../../../riscv64-unknown-linux-musl/lib/crt1.o
 .rela.text.exit
                0x0000000200012000        0x0 /home/zbtrs/ospp/rt-thread/bsp/toolchain/riscv64-linux-musleabi_for_x86_64-pc-linux-gnu/bin/../lib/gcc/riscv64-unknown-linux-musl/10.1.0/../../../../riscv64-unknown-linux-musl/lib/crt1.o
 .rela.text.__syscall_ret
                0x0000000200012000        0x0 /home/zbtrs/ospp/rt-thread/bsp/toolchain/riscv64-linux-musleabi_for_x86_64-pc-linux-gnu/bin/../lib/gcc/riscv64-unknown-linux-musl/10.1.0/../../../../riscv64-unknown-linux-musl/lib/crt1.o
 .rela.text.__lctrans
                0x0000000200012000        0x0 /home/zbtrs/ospp/rt-thread/bsp/toolchain/riscv64-linux-musleabi_for_x86_64-pc-linux-gnu/bin/../lib/gcc/riscv64-unknown-linux-musl/10.1.0/../../../../riscv64-unknown-linux-musl/lib/crt1.o
 .rela.text.__lctrans_cur
                0x0000000200012000        0x0 /home/zbtrs/ospp/rt-thread/bsp/toolchain/riscv64-linux-musleabi_for_x86_64-pc-linux-gnu/bin/../lib/gcc/riscv64-unknown-linux-musl/10.1.0/../../../../riscv64-unknown-linux-musl/lib/crt1.o
 .rela.text.__simple_calloc
                0x0000000200012000        0x0 /home/zbtrs/ospp/rt-thread/bsp/toolchain/riscv64-linux-musleabi_for_x86_64-pc-linux-gnu/bin/../lib/gcc/riscv64-unknown-linux-musl/10.1.0/../../../../riscv64-unknown-linux-musl/lib/crt1.o
 .rela.text.malloc
                0x0000000200012000        0x0 /home/zbtrs/ospp/rt-thread/bsp/toolchain/riscv64-linux-musleabi_for_x86_64-pc-linux-gnu/bin/../lib/gcc/riscv64-unknown-linux-musl/10.1.0/../../../../riscv64-unknown-linux-musl/lib/crt1.o
 .rela.text.calloc
                0x0000000200012000        0x0 /home/zbtrs/ospp/rt-thread/bsp/toolchain/riscv64-linux-musleabi_for_x86_64-pc-linux-gnu/bin/../lib/gcc/riscv64-unknown-linux-musl/10.1.0/../../../../riscv64-unknown-linux-musl/lib/crt1.o
 .rela.text.realloc
                0x0000000200012000        0x0 /home/zbtrs/ospp/rt-thread/bsp/toolchain/riscv64-linux-musleabi_for_x86_64-pc-linux-gnu/bin/../lib/gcc/riscv64-unknown-linux-musl/10.1.0/../../../../riscv64-unknown-linux-musl/lib/crt1.o
 .rela.text.__mmap
                0x0000000200012000        0x0 /home/zbtrs/ospp/rt-thread/bsp/toolchain/riscv64-linux-musleabi_for_x86_64-pc-linux-gnu/bin/../lib/gcc/riscv64-unknown-linux-musl/10.1.0/../../../../riscv64-unknown-linux-musl/lib/crt1.o
 .rela.text.__mremap
                0x0000000200012000        0x0 /home/zbtrs/ospp/rt-thread/bsp/toolchain/riscv64-linux-musleabi_for_x86_64-pc-linux-gnu/bin/../lib/gcc/riscv64-unknown-linux-musl/10.1.0/../../../../riscv64-unknown-linux-musl/lib/crt1.o
 .rela.text.mbtowc
                0x0000000200012000        0x0 /home/zbtrs/ospp/rt-thread/bsp/toolchain/riscv64-linux-musleabi_for_x86_64-pc-linux-gnu/bin/../lib/gcc/riscv64-unknown-linux-musl/10.1.0/../../../../riscv64-unknown-linux-musl/lib/crt1.o
 .rela.text.socket
                0x0000000200012000        0x0 /home/zbtrs/ospp/rt-thread/bsp/toolchain/riscv64-linux-musleabi_for_x86_64-pc-linux-gnu/bin/../lib/gcc/riscv64-unknown-linux-musl/10.1.0/../../../../riscv64-unknown-linux-musl/lib/crt1.o
 .rela.text.perror
                0x0000000200012000        0x0 /home/zbtrs/ospp/rt-thread/bsp/toolchain/riscv64-linux-musleabi_for_x86_64-pc-linux-gnu/bin/../lib/gcc/riscv64-unknown-linux-musl/10.1.0/../../../../riscv64-unknown-linux-musl/lib/crt1.o
 .rela.text.printf_core
                0x0000000200012000        0x0 /home/zbtrs/ospp/rt-thread/bsp/toolchain/riscv64-linux-musleabi_for_x86_64-pc-linux-gnu/bin/../lib/gcc/riscv64-unknown-linux-musl/10.1.0/../../../../riscv64-unknown-linux-musl/lib/crt1.o
 .rela.text.vsnprintf
                0x0000000200012000        0x0 /home/zbtrs/ospp/rt-thread/bsp/toolchain/riscv64-linux-musleabi_for_x86_64-pc-linux-gnu/bin/../lib/gcc/riscv64-unknown-linux-musl/10.1.0/../../../../riscv64-unknown-linux-musl/lib/crt1.o
 .rela.text.__pthread_exit
                0x0000000200012000        0x0 /home/zbtrs/ospp/rt-thread/bsp/toolchain/riscv64-linux-musleabi_for_x86_64-pc-linux-gnu/bin/../lib/gcc/riscv64-unknown-linux-musl/10.1.0/../../../../riscv64-unknown-linux-musl/lib/crt1.o
 .rela.text.__pthread_create
                0x0000000200012000        0x0 /home/zbtrs/ospp/rt-thread/bsp/toolchain/riscv64-linux-musleabi_for_x86_64-pc-linux-gnu/bin/../lib/gcc/riscv64-unknown-linux-musl/10.1.0/../../../../riscv64-unknown-linux-musl/lib/crt1.o
 .rela.text.close
                0x0000000200012000        0x0 /home/zbtrs/ospp/rt-thread/bsp/toolchain/riscv64-linux-musleabi_for_x86_64-pc-linux-gnu/bin/../lib/gcc/riscv64-unknown-linux-musl/10.1.0/../../../../riscv64-unknown-linux-musl/lib/crt1.o
 .rela.text.static_init_tls
                0x0000000200012000        0x0 /home/zbtrs/ospp/rt-thread/bsp/toolchain/riscv64-linux-musleabi_for_x86_64-pc-linux-gnu/bin/../lib/gcc/riscv64-unknown-linux-musl/10.1.0/../../../../riscv64-unknown-linux-musl/lib/crt1.o
 .rela.text.__expand_heap
                0x0000000200012000        0x0 /home/zbtrs/ospp/rt-thread/bsp/toolchain/riscv64-linux-musleabi_for_x86_64-pc-linux-gnu/bin/../lib/gcc/riscv64-unknown-linux-musl/10.1.0/../../../../riscv64-unknown-linux-musl/lib/crt1.o
 .rela.text.__stdio_close
                0x0000000200012000        0x0 /home/zbtrs/ospp/rt-thread/bsp/toolchain/riscv64-linux-musleabi_for_x86_64-pc-linux-gnu/bin/../lib/gcc/riscv64-unknown-linux-musl/10.1.0/../../../../riscv64-unknown-linux-musl/lib/crt1.o
 .rela.text.__towrite_needs_stdio_exit
                0x0000000200012000        0x0 /home/zbtrs/ospp/rt-thread/bsp/toolchain/riscv64-linux-musleabi_for_x86_64-pc-linux-gnu/bin/../lib/gcc/riscv64-unknown-linux-musl/10.1.0/../../../../riscv64-unknown-linux-musl/lib/crt1.o
 .rela.text.wcrtomb
                0x0000000200012000        0x0 /home/zbtrs/ospp/rt-thread/bsp/toolchain/riscv64-linux-musleabi_for_x86_64-pc-linux-gnu/bin/../lib/gcc/riscv64-unknown-linux-musl/10.1.0/../../../../riscv64-unknown-linux-musl/lib/crt1.o
 .rela.text.__stdio_exit
                0x0000000200012000        0x0 /home/zbtrs/ospp/rt-thread/bsp/toolchain/riscv64-linux-musleabi_for_x86_64-pc-linux-gnu/bin/../lib/gcc/riscv64-unknown-linux-musl/10.1.0/../../../../riscv64-unknown-linux-musl/lib/crt1.o
 *(.rela.fini)
 *(.rela.rodata .rela.rodata.* .rela.gnu.linkonce.r.*)
 *(.rela.data .rela.data.* .rela.gnu.linkonce.d.*)
 *(.rela.tdata .rela.tdata.* .rela.gnu.linkonce.td.*)
 *(.rela.tbss .rela.tbss.* .rela.gnu.linkonce.tb.*)
 *(.rela.ctors)
 *(.rela.dtors)
 *(.rela.got)
 .rela.got      0x0000000200012000        0x0 /home/zbtrs/ospp/rt-thread/bsp/toolchain/riscv64-linux-musleabi_for_x86_64-pc-linux-gnu/bin/../lib/gcc/riscv64-unknown-linux-musl/10.1.0/../../../../riscv64-unknown-linux-musl/lib/crt1.o
 *(.rela.bss .rela.bss.* .rela.gnu.linkonce.b.*)
 *(.rela.ifunc)

.rela.plt
 *(.rela.plt)
 *(.rela.iplt)

.plt
 *(.plt)
 *(.iplt)

.dynamic
 *(.dynamic)

.got            0x0000000200012000       0x10
 *(.got)
 .got           0x0000000200012000       0x10 /home/zbtrs/ospp/rt-thread/bsp/toolchain/riscv64-linux-musleabi_for_x86_64-pc-linux-gnu/bin/../lib/gcc/riscv64-unknown-linux-musl/10.1.0/../../../../riscv64-unknown-linux-musl/lib/crt1.o
                0x0000000200012000                _GLOBAL_OFFSET_TABLE_
 *(.igot)

.got.plt        0x0000000200012010       0x10
 *(.got.plt)
 .got.plt       0x0000000200012010       0x10 /home/zbtrs/ospp/rt-thread/bsp/toolchain/riscv64-linux-musleabi_for_x86_64-pc-linux-gnu/bin/../lib/gcc/riscv64-unknown-linux-musl/10.1.0/../../../../riscv64-unknown-linux-musl/lib/crt1.o
 *(.igot.plt)

data            0x0000000200012020      0x1e0
                0x0000000200012020                __data_start__ = .
 *(vtable)
 *(.data*)
 .data          0x0000000200012020        0x0 /home/zbtrs/ospp/rt-thread/bsp/toolchain/riscv64-linux-musleabi_for_x86_64-pc-linux-gnu/bin/../lib/gcc/riscv64-unknown-linux-musl/10.1.0/../../../../riscv64-unknown-linux-musl/lib/crt1.o
 .data          0x0000000200012020        0x0 /home/zbtrs/ospp/rt-thread/bsp/toolchain/riscv64-linux-musleabi_for_x86_64-pc-linux-gnu/bin/../lib/gcc/riscv64-unknown-linux-musl/10.1.0/crti.o
 .data          0x0000000200012020        0x0 /home/zbtrs/ospp/rt-thread/bsp/toolchain/riscv64-linux-musleabi_for_x86_64-pc-linux-gnu/bin/../lib/gcc/riscv64-unknown-linux-musl/10.1.0/crtbeginT.o
 .data          0x0000000200012020        0x0 /home/zbtrs/ospp/userapps/sdk/rt-thread/lib/risc-v/rv64gc//librtthread.a(rt_channel.o)
 .data          0x0000000200012020        0x0 /home/zbtrs/ospp/userapps/sdk/rt-thread/lib/risc-v/rv64gc//librtthread.a(rt_completion.o)
 .data          0x0000000200012020        0x0 /home/zbtrs/ospp/userapps/sdk/rt-thread/lib/risc-v/rv64gc//librtthread.a(rt_device.o)
 .data          0x0000000200012020        0x0 /home/zbtrs/ospp/userapps/sdk/rt-thread/lib/risc-v/rv64gc//librtthread.a(rt_ipc.o)
 .data          0x0000000200012020        0x0 /home/zbtrs/ospp/userapps/sdk/rt-thread/lib/risc-v/rv64gc//librtthread.a(rt_net.o)
 .data          0x0000000200012020        0x0 /home/zbtrs/ospp/userapps/sdk/rt-thread/lib/risc-v/rv64gc//librtthread.a(rt_syscall.o)
 .data          0x0000000200012020        0x0 /home/zbtrs/ospp/userapps/sdk/rt-thread/lib/risc-v/rv64gc//librtthread.a(rt_thread.o)
 .data          0x0000000200012020        0x0 /home/zbtrs/ospp/userapps/sdk/rt-thread/lib/risc-v/rv64gc//librtthread.a(rt_timer.o)
 .data          0x0000000200012020        0x0 /home/zbtrs/ospp/userapps/sdk/rt-thread/lib/risc-v/rv64gc//librtthread.a(stub.o)
 .data          0x0000000200012020        0x0 /tmp/cc2olldp.o
 .data          0x0000000200012020        0x0 /home/zbtrs/ospp/rt-thread/bsp/toolchain/riscv64-linux-musleabi_for_x86_64-pc-linux-gnu/bin/../lib/gcc/riscv64-unknown-linux-musl/10.1.0/../../../../riscv64-unknown-linux-musl/lib/libc.a(__libc_start_main.o)
 .data          0x0000000200012020        0x0 /home/zbtrs/ospp/rt-thread/bsp/toolchain/riscv64-linux-musleabi_for_x86_64-pc-linux-gnu/bin/../lib/gcc/riscv64-unknown-linux-musl/10.1.0/../../../../riscv64-unknown-linux-musl/lib/libc.a(__errno_location.o)
 .data          0x0000000200012020        0x0 /home/zbtrs/ospp/rt-thread/bsp/toolchain/riscv64-linux-musleabi_for_x86_64-pc-linux-gnu/bin/../lib/gcc/riscv64-unknown-linux-musl/10.1.0/../../../../riscv64-unknown-linux-musl/lib/libc.a(strerror.o)
 .data          0x0000000200012020        0x0 /home/zbtrs/ospp/rt-thread/bsp/toolchain/riscv64-linux-musleabi_for_x86_64-pc-linux-gnu/bin/../lib/gcc/riscv64-unknown-linux-musl/10.1.0/../../../../riscv64-unknown-linux-musl/lib/libc.a(exit.o)
 .data          0x0000000200012020        0x0 /home/zbtrs/ospp/rt-thread/bsp/toolchain/riscv64-linux-musleabi_for_x86_64-pc-linux-gnu/bin/../lib/gcc/riscv64-unknown-linux-musl/10.1.0/../../../../riscv64-unknown-linux-musl/lib/libc.a(fcntl.o)
 .data          0x0000000200012020        0x0 /home/zbtrs/ospp/rt-thread/bsp/toolchain/riscv64-linux-musleabi_for_x86_64-pc-linux-gnu/bin/../lib/gcc/riscv64-unknown-linux-musl/10.1.0/../../../../riscv64-unknown-linux-musl/lib/libc.a(libc.o)
 .data          0x0000000200012020        0x0 /home/zbtrs/ospp/rt-thread/bsp/toolchain/riscv64-linux-musleabi_for_x86_64-pc-linux-gnu/bin/../lib/gcc/riscv64-unknown-linux-musl/10.1.0/../../../../riscv64-unknown-linux-musl/lib/libc.a(syscall.o)
 .data          0x0000000200012020        0x0 /home/zbtrs/ospp/rt-thread/bsp/toolchain/riscv64-linux-musleabi_for_x86_64-pc-linux-gnu/bin/../lib/gcc/riscv64-unknown-linux-musl/10.1.0/../../../../riscv64-unknown-linux-musl/lib/libc.a(syscall.o)
 .data          0x0000000200012020        0x0 /home/zbtrs/ospp/rt-thread/bsp/toolchain/riscv64-linux-musleabi_for_x86_64-pc-linux-gnu/bin/../lib/gcc/riscv64-unknown-linux-musl/10.1.0/../../../../riscv64-unknown-linux-musl/lib/libc.a(syscall_ret.o)
 .data          0x0000000200012020        0x0 /home/zbtrs/ospp/rt-thread/bsp/toolchain/riscv64-linux-musleabi_for_x86_64-pc-linux-gnu/bin/../lib/gcc/riscv64-unknown-linux-musl/10.1.0/../../../../riscv64-unknown-linux-musl/lib/libc.a(__lctrans.o)
 .data          0x0000000200012020        0x0 /home/zbtrs/ospp/rt-thread/bsp/toolchain/riscv64-linux-musleabi_for_x86_64-pc-linux-gnu/bin/../lib/gcc/riscv64-unknown-linux-musl/10.1.0/../../../../riscv64-unknown-linux-musl/lib/libc.a(lite_malloc.o)
 .data          0x0000000200012020        0x0 /home/zbtrs/ospp/rt-thread/bsp/toolchain/riscv64-linux-musleabi_for_x86_64-pc-linux-gnu/bin/../lib/gcc/riscv64-unknown-linux-musl/10.1.0/../../../../riscv64-unknown-linux-musl/lib/libc.a(malloc.o)
 .data          0x0000000200012020        0x0 /home/zbtrs/ospp/rt-thread/bsp/toolchain/riscv64-linux-musleabi_for_x86_64-pc-linux-gnu/bin/../lib/gcc/riscv64-unknown-linux-musl/10.1.0/../../../../riscv64-unknown-linux-musl/lib/libc.a(getopt_long.o)
 .data          0x0000000200012020        0x0 /home/zbtrs/ospp/rt-thread/bsp/toolchain/riscv64-linux-musleabi_for_x86_64-pc-linux-gnu/bin/../lib/gcc/riscv64-unknown-linux-musl/10.1.0/../../../../riscv64-unknown-linux-musl/lib/libc.a(madvise.o)
 .data          0x0000000200012020        0x0 /home/zbtrs/ospp/rt-thread/bsp/toolchain/riscv64-linux-musleabi_for_x86_64-pc-linux-gnu/bin/../lib/gcc/riscv64-unknown-linux-musl/10.1.0/../../../../riscv64-unknown-linux-musl/lib/libc.a(mmap.o)
 .data          0x0000000200012020        0x0 /home/zbtrs/ospp/rt-thread/bsp/toolchain/riscv64-linux-musleabi_for_x86_64-pc-linux-gnu/bin/../lib/gcc/riscv64-unknown-linux-musl/10.1.0/../../../../riscv64-unknown-linux-musl/lib/libc.a(mremap.o)
 .data          0x0000000200012020        0x0 /home/zbtrs/ospp/rt-thread/bsp/toolchain/riscv64-linux-musleabi_for_x86_64-pc-linux-gnu/bin/../lib/gcc/riscv64-unknown-linux-musl/10.1.0/../../../../riscv64-unknown-linux-musl/lib/libc.a(munmap.o)
 .data          0x0000000200012020        0x0 /home/zbtrs/ospp/rt-thread/bsp/toolchain/riscv64-linux-musleabi_for_x86_64-pc-linux-gnu/bin/../lib/gcc/riscv64-unknown-linux-musl/10.1.0/../../../../riscv64-unknown-linux-musl/lib/libc.a(mblen.o)
 .data          0x0000000200012020        0x0 /home/zbtrs/ospp/rt-thread/bsp/toolchain/riscv64-linux-musleabi_for_x86_64-pc-linux-gnu/bin/../lib/gcc/riscv64-unknown-linux-musl/10.1.0/../../../../riscv64-unknown-linux-musl/lib/libc.a(mbtowc.o)
 .data          0x0000000200012020        0x0 /home/zbtrs/ospp/rt-thread/bsp/toolchain/riscv64-linux-musleabi_for_x86_64-pc-linux-gnu/bin/../lib/gcc/riscv64-unknown-linux-musl/10.1.0/../../../../riscv64-unknown-linux-musl/lib/libc.a(accept.o)
 .data          0x0000000200012020        0x0 /home/zbtrs/ospp/rt-thread/bsp/toolchain/riscv64-linux-musleabi_for_x86_64-pc-linux-gnu/bin/../lib/gcc/riscv64-unknown-linux-musl/10.1.0/../../../../riscv64-unknown-linux-musl/lib/libc.a(bind.o)
 .data          0x0000000200012020        0x0 /home/zbtrs/ospp/rt-thread/bsp/toolchain/riscv64-linux-musleabi_for_x86_64-pc-linux-gnu/bin/../lib/gcc/riscv64-unknown-linux-musl/10.1.0/../../../../riscv64-unknown-linux-musl/lib/libc.a(connect.o)
 .data          0x0000000200012020        0x0 /home/zbtrs/ospp/rt-thread/bsp/toolchain/riscv64-linux-musleabi_for_x86_64-pc-linux-gnu/bin/../lib/gcc/riscv64-unknown-linux-musl/10.1.0/../../../../riscv64-unknown-linux-musl/lib/libc.a(htonl.o)
 .data          0x0000000200012020        0x0 /home/zbtrs/ospp/rt-thread/bsp/toolchain/riscv64-linux-musleabi_for_x86_64-pc-linux-gnu/bin/../lib/gcc/riscv64-unknown-linux-musl/10.1.0/../../../../riscv64-unknown-linux-musl/lib/libc.a(htons.o)
 .data          0x0000000200012020        0x0 /home/zbtrs/ospp/rt-thread/bsp/toolchain/riscv64-linux-musleabi_for_x86_64-pc-linux-gnu/bin/../lib/gcc/riscv64-unknown-linux-musl/10.1.0/../../../../riscv64-unknown-linux-musl/lib/libc.a(listen.o)
 .data          0x0000000200012020        0x0 /home/zbtrs/ospp/rt-thread/bsp/toolchain/riscv64-linux-musleabi_for_x86_64-pc-linux-gnu/bin/../lib/gcc/riscv64-unknown-linux-musl/10.1.0/../../../../riscv64-unknown-linux-musl/lib/libc.a(setsockopt.o)
 .data          0x0000000200012020        0x0 /home/zbtrs/ospp/rt-thread/bsp/toolchain/riscv64-linux-musleabi_for_x86_64-pc-linux-gnu/bin/../lib/gcc/riscv64-unknown-linux-musl/10.1.0/../../../../riscv64-unknown-linux-musl/lib/libc.a(socket.o)
 .data          0x0000000200012020        0x0 /home/zbtrs/ospp/rt-thread/bsp/toolchain/riscv64-linux-musleabi_for_x86_64-pc-linux-gnu/bin/../lib/gcc/riscv64-unknown-linux-musl/10.1.0/../../../../riscv64-unknown-linux-musl/lib/libc.a(rand.o)
 .data          0x0000000200012020        0x0 /home/zbtrs/ospp/rt-thread/bsp/toolchain/riscv64-linux-musleabi_for_x86_64-pc-linux-gnu/bin/../lib/gcc/riscv64-unknown-linux-musl/10.1.0/../../../../riscv64-unknown-linux-musl/lib/libc.a(select.o)
 .data          0x0000000200012020        0x0 /home/zbtrs/ospp/rt-thread/bsp/toolchain/riscv64-linux-musleabi_for_x86_64-pc-linux-gnu/bin/../lib/gcc/riscv64-unknown-linux-musl/10.1.0/../../../../riscv64-unknown-linux-musl/lib/libc.a(perror.o)
 .data          0x0000000200012020        0x0 /home/zbtrs/ospp/rt-thread/bsp/toolchain/riscv64-linux-musleabi_for_x86_64-pc-linux-gnu/bin/../lib/gcc/riscv64-unknown-linux-musl/10.1.0/../../../../riscv64-unknown-linux-musl/lib/libc.a(printf.o)
 .data          0x0000000200012020        0x0 /home/zbtrs/ospp/rt-thread/bsp/toolchain/riscv64-linux-musleabi_for_x86_64-pc-linux-gnu/bin/../lib/gcc/riscv64-unknown-linux-musl/10.1.0/../../../../riscv64-unknown-linux-musl/lib/libc.a(puts.o)
 .data          0x0000000200012020        0x0 /home/zbtrs/ospp/rt-thread/bsp/toolchain/riscv64-linux-musleabi_for_x86_64-pc-linux-gnu/bin/../lib/gcc/riscv64-unknown-linux-musl/10.1.0/../../../../riscv64-unknown-linux-musl/lib/libc.a(stderr.o)
 .data.__stderr_FILE
                0x0000000200012020       0xe8 /home/zbtrs/ospp/rt-thread/bsp/toolchain/riscv64-linux-musleabi_for_x86_64-pc-linux-gnu/bin/../lib/gcc/riscv64-unknown-linux-musl/10.1.0/../../../../riscv64-unknown-linux-musl/lib/libc.a(stderr.o)
                0x0000000200012020                __stderr_FILE
 .data          0x0000000200012108        0x0 /home/zbtrs/ospp/rt-thread/bsp/toolchain/riscv64-linux-musleabi_for_x86_64-pc-linux-gnu/bin/../lib/gcc/riscv64-unknown-linux-musl/10.1.0/../../../../riscv64-unknown-linux-musl/lib/libc.a(stdout.o)
 .data.__stdout_FILE
                0x0000000200012108       0xe8 /home/zbtrs/ospp/rt-thread/bsp/toolchain/riscv64-linux-musleabi_for_x86_64-pc-linux-gnu/bin/../lib/gcc/riscv64-unknown-linux-musl/10.1.0/../../../../riscv64-unknown-linux-musl/lib/libc.a(stdout.o)
                0x0000000200012108                __stdout_FILE
 .data          0x00000002000121f0        0x0 /home/zbtrs/ospp/rt-thread/bsp/toolchain/riscv64-linux-musleabi_for_x86_64-pc-linux-gnu/bin/../lib/gcc/riscv64-unknown-linux-musl/10.1.0/../../../../riscv64-unknown-linux-musl/lib/libc.a(vfprintf.o)
 .data          0x00000002000121f0        0x0 /home/zbtrs/ospp/rt-thread/bsp/toolchain/riscv64-linux-musleabi_for_x86_64-pc-linux-gnu/bin/../lib/gcc/riscv64-unknown-linux-musl/10.1.0/../../../../riscv64-unknown-linux-musl/lib/libc.a(vsnprintf.o)
 .data          0x00000002000121f0        0x0 /home/zbtrs/ospp/rt-thread/bsp/toolchain/riscv64-linux-musleabi_for_x86_64-pc-linux-gnu/bin/../lib/gcc/riscv64-unknown-linux-musl/10.1.0/../../../../riscv64-unknown-linux-musl/lib/libc.a(vsprintf.o)
 .data          0x00000002000121f0        0x0 /home/zbtrs/ospp/rt-thread/bsp/toolchain/riscv64-linux-musleabi_for_x86_64-pc-linux-gnu/bin/../lib/gcc/riscv64-unknown-linux-musl/10.1.0/../../../../riscv64-unknown-linux-musl/lib/libc.a(memcmp.o)
 .data          0x00000002000121f0        0x0 /home/zbtrs/ospp/rt-thread/bsp/toolchain/riscv64-linux-musleabi_for_x86_64-pc-linux-gnu/bin/../lib/gcc/riscv64-unknown-linux-musl/10.1.0/../../../../riscv64-unknown-linux-musl/lib/libc.a(memcpy.o)
 .data          0x00000002000121f0        0x0 /home/zbtrs/ospp/rt-thread/bsp/toolchain/riscv64-linux-musleabi_for_x86_64-pc-linux-gnu/bin/../lib/gcc/riscv64-unknown-linux-musl/10.1.0/../../../../riscv64-unknown-linux-musl/lib/libc.a(memmove.o)
 .data          0x00000002000121f0        0x0 /home/zbtrs/ospp/rt-thread/bsp/toolchain/riscv64-linux-musleabi_for_x86_64-pc-linux-gnu/bin/../lib/gcc/riscv64-unknown-linux-musl/10.1.0/../../../../riscv64-unknown-linux-musl/lib/libc.a(memset.o)
 .data          0x00000002000121f0        0x0 /home/zbtrs/ospp/rt-thread/bsp/toolchain/riscv64-linux-musleabi_for_x86_64-pc-linux-gnu/bin/../lib/gcc/riscv64-unknown-linux-musl/10.1.0/../../../../riscv64-unknown-linux-musl/lib/libc.a(strcasecmp.o)
 .data          0x00000002000121f0        0x0 /home/zbtrs/ospp/rt-thread/bsp/toolchain/riscv64-linux-musleabi_for_x86_64-pc-linux-gnu/bin/../lib/gcc/riscv64-unknown-linux-musl/10.1.0/../../../../riscv64-unknown-linux-musl/lib/libc.a(strcmp.o)
 .data          0x00000002000121f0        0x0 /home/zbtrs/ospp/rt-thread/bsp/toolchain/riscv64-linux-musleabi_for_x86_64-pc-linux-gnu/bin/../lib/gcc/riscv64-unknown-linux-musl/10.1.0/../../../../riscv64-unknown-linux-musl/lib/libc.a(strdup.o)
 .data          0x00000002000121f0        0x0 /home/zbtrs/ospp/rt-thread/bsp/toolchain/riscv64-linux-musleabi_for_x86_64-pc-linux-gnu/bin/../lib/gcc/riscv64-unknown-linux-musl/10.1.0/../../../../riscv64-unknown-linux-musl/lib/libc.a(strlen.o)
 .data          0x00000002000121f0        0x0 /home/zbtrs/ospp/rt-thread/bsp/toolchain/riscv64-linux-musleabi_for_x86_64-pc-linux-gnu/bin/../lib/gcc/riscv64-unknown-linux-musl/10.1.0/../../../../riscv64-unknown-linux-musl/lib/libc.a(strncmp.o)
 .data          0x00000002000121f0        0x0 /home/zbtrs/ospp/rt-thread/bsp/toolchain/riscv64-linux-musleabi_for_x86_64-pc-linux-gnu/bin/../lib/gcc/riscv64-unknown-linux-musl/10.1.0/../../../../riscv64-unknown-linux-musl/lib/libc.a(strncpy.o)
 .data          0x00000002000121f0        0x0 /home/zbtrs/ospp/rt-thread/bsp/toolchain/riscv64-linux-musleabi_for_x86_64-pc-linux-gnu/bin/../lib/gcc/riscv64-unknown-linux-musl/10.1.0/../../../../riscv64-unknown-linux-musl/lib/libc.a(strnlen.o)
 .data          0x00000002000121f0        0x0 /home/zbtrs/ospp/rt-thread/bsp/toolchain/riscv64-linux-musleabi_for_x86_64-pc-linux-gnu/bin/../lib/gcc/riscv64-unknown-linux-musl/10.1.0/../../../../riscv64-unknown-linux-musl/lib/libc.a(strstr.o)
 .data          0x00000002000121f0        0x0 /home/zbtrs/ospp/rt-thread/bsp/toolchain/riscv64-linux-musleabi_for_x86_64-pc-linux-gnu/bin/../lib/gcc/riscv64-unknown-linux-musl/10.1.0/../../../../riscv64-unknown-linux-musl/lib/libc.a(__lock.o)
 .data          0x00000002000121f0        0x0 /home/zbtrs/ospp/rt-thread/bsp/toolchain/riscv64-linux-musleabi_for_x86_64-pc-linux-gnu/bin/../lib/gcc/riscv64-unknown-linux-musl/10.1.0/../../../../riscv64-unknown-linux-musl/lib/libc.a(__syscall_cp.o)
 .data          0x00000002000121f0        0x0 /home/zbtrs/ospp/rt-thread/bsp/toolchain/riscv64-linux-musleabi_for_x86_64-pc-linux-gnu/bin/../lib/gcc/riscv64-unknown-linux-musl/10.1.0/../../../../riscv64-unknown-linux-musl/lib/libc.a(__wait.o)
 .data          0x00000002000121f0        0x0 /home/zbtrs/ospp/rt-thread/bsp/toolchain/riscv64-linux-musleabi_for_x86_64-pc-linux-gnu/bin/../lib/gcc/riscv64-unknown-linux-musl/10.1.0/../../../../riscv64-unknown-linux-musl/lib/libc.a(pthread_create.o)
 .data          0x00000002000121f0        0x0 /home/zbtrs/ospp/rt-thread/bsp/toolchain/riscv64-linux-musleabi_for_x86_64-pc-linux-gnu/bin/../lib/gcc/riscv64-unknown-linux-musl/10.1.0/../../../../riscv64-unknown-linux-musl/lib/libc.a(__set_thread_area.o)
 .data          0x00000002000121f0        0x0 /home/zbtrs/ospp/rt-thread/bsp/toolchain/riscv64-linux-musleabi_for_x86_64-pc-linux-gnu/bin/../lib/gcc/riscv64-unknown-linux-musl/10.1.0/../../../../riscv64-unknown-linux-musl/lib/libc.a(__unmapself.o)
 .data          0x00000002000121f0        0x0 /home/zbtrs/ospp/rt-thread/bsp/toolchain/riscv64-linux-musleabi_for_x86_64-pc-linux-gnu/bin/../lib/gcc/riscv64-unknown-linux-musl/10.1.0/../../../../riscv64-unknown-linux-musl/lib/libc.a(clone.o)
 .data          0x00000002000121f0        0x0 /home/zbtrs/ospp/rt-thread/bsp/toolchain/riscv64-linux-musleabi_for_x86_64-pc-linux-gnu/bin/../lib/gcc/riscv64-unknown-linux-musl/10.1.0/../../../../riscv64-unknown-linux-musl/lib/libc.a(vmlock.o)
 .data          0x00000002000121f0        0x0 /home/zbtrs/ospp/rt-thread/bsp/toolchain/riscv64-linux-musleabi_for_x86_64-pc-linux-gnu/bin/../lib/gcc/riscv64-unknown-linux-musl/10.1.0/../../../../riscv64-unknown-linux-musl/lib/libc.a(time.o)
 .data          0x00000002000121f0        0x0 /home/zbtrs/ospp/rt-thread/bsp/toolchain/riscv64-linux-musleabi_for_x86_64-pc-linux-gnu/bin/../lib/gcc/riscv64-unknown-linux-musl/10.1.0/../../../../riscv64-unknown-linux-musl/lib/libc.a(close.o)
 .data          0x00000002000121f0        0x0 /home/zbtrs/ospp/rt-thread/bsp/toolchain/riscv64-linux-musleabi_for_x86_64-pc-linux-gnu/bin/../lib/gcc/riscv64-unknown-linux-musl/10.1.0/../../../../riscv64-unknown-linux-musl/lib/libc.a(tolower.o)
 .data          0x00000002000121f0        0x0 /home/zbtrs/ospp/rt-thread/bsp/toolchain/riscv64-linux-musleabi_for_x86_64-pc-linux-gnu/bin/../lib/gcc/riscv64-unknown-linux-musl/10.1.0/../../../../riscv64-unknown-linux-musl/lib/libc.a(__environ.o)
 .data          0x00000002000121f0        0x0 /home/zbtrs/ospp/rt-thread/bsp/toolchain/riscv64-linux-musleabi_for_x86_64-pc-linux-gnu/bin/../lib/gcc/riscv64-unknown-linux-musl/10.1.0/../../../../riscv64-unknown-linux-musl/lib/libc.a(__init_tls.o)
 .data          0x00000002000121f0        0x0 /home/zbtrs/ospp/rt-thread/bsp/toolchain/riscv64-linux-musleabi_for_x86_64-pc-linux-gnu/bin/../lib/gcc/riscv64-unknown-linux-musl/10.1.0/../../../../riscv64-unknown-linux-musl/lib/libc.a(__stack_chk_fail.o)
 .data          0x00000002000121f0        0x0 /home/zbtrs/ospp/rt-thread/bsp/toolchain/riscv64-linux-musleabi_for_x86_64-pc-linux-gnu/bin/../lib/gcc/riscv64-unknown-linux-musl/10.1.0/../../../../riscv64-unknown-linux-musl/lib/libc.a(_Exit.o)
 .data          0x00000002000121f0        0x0 /home/zbtrs/ospp/rt-thread/bsp/toolchain/riscv64-linux-musleabi_for_x86_64-pc-linux-gnu/bin/../lib/gcc/riscv64-unknown-linux-musl/10.1.0/../../../../riscv64-unknown-linux-musl/lib/libc.a(expand_heap.o)
 .data          0x00000002000121f0        0x0 /home/zbtrs/ospp/rt-thread/bsp/toolchain/riscv64-linux-musleabi_for_x86_64-pc-linux-gnu/bin/../lib/gcc/riscv64-unknown-linux-musl/10.1.0/../../../../riscv64-unknown-linux-musl/lib/libc.a(__fpclassifyl.o)
 .data          0x00000002000121f0        0x0 /home/zbtrs/ospp/rt-thread/bsp/toolchain/riscv64-linux-musleabi_for_x86_64-pc-linux-gnu/bin/../lib/gcc/riscv64-unknown-linux-musl/10.1.0/../../../../riscv64-unknown-linux-musl/lib/libc.a(__signbitl.o)
 .data          0x00000002000121f0        0x0 /home/zbtrs/ospp/rt-thread/bsp/toolchain/riscv64-linux-musleabi_for_x86_64-pc-linux-gnu/bin/../lib/gcc/riscv64-unknown-linux-musl/10.1.0/../../../../riscv64-unknown-linux-musl/lib/libc.a(frexpl.o)
 .data          0x00000002000121f0        0x0 /home/zbtrs/ospp/rt-thread/bsp/toolchain/riscv64-linux-musleabi_for_x86_64-pc-linux-gnu/bin/../lib/gcc/riscv64-unknown-linux-musl/10.1.0/../../../../riscv64-unknown-linux-musl/lib/libc.a(getopt.o)
 .data          0x00000002000121f0        0x0 /home/zbtrs/ospp/rt-thread/bsp/toolchain/riscv64-linux-musleabi_for_x86_64-pc-linux-gnu/bin/../lib/gcc/riscv64-unknown-linux-musl/10.1.0/../../../../riscv64-unknown-linux-musl/lib/libc.a(mprotect.o)
 .data          0x00000002000121f0        0x0 /home/zbtrs/ospp/rt-thread/bsp/toolchain/riscv64-linux-musleabi_for_x86_64-pc-linux-gnu/bin/../lib/gcc/riscv64-unknown-linux-musl/10.1.0/../../../../riscv64-unknown-linux-musl/lib/libc.a(internal.o)
 .data          0x00000002000121f0        0x0 /home/zbtrs/ospp/rt-thread/bsp/toolchain/riscv64-linux-musleabi_for_x86_64-pc-linux-gnu/bin/../lib/gcc/riscv64-unknown-linux-musl/10.1.0/../../../../riscv64-unknown-linux-musl/lib/libc.a(wctomb.o)
 .data          0x00000002000121f0        0x0 /home/zbtrs/ospp/rt-thread/bsp/toolchain/riscv64-linux-musleabi_for_x86_64-pc-linux-gnu/bin/../lib/gcc/riscv64-unknown-linux-musl/10.1.0/../../../../riscv64-unknown-linux-musl/lib/libc.a(block.o)
 .data          0x00000002000121f0        0x0 /home/zbtrs/ospp/rt-thread/bsp/toolchain/riscv64-linux-musleabi_for_x86_64-pc-linux-gnu/bin/../lib/gcc/riscv64-unknown-linux-musl/10.1.0/../../../../riscv64-unknown-linux-musl/lib/libc.a(__lockfile.o)
 .data          0x00000002000121f0        0x0 /home/zbtrs/ospp/rt-thread/bsp/toolchain/riscv64-linux-musleabi_for_x86_64-pc-linux-gnu/bin/../lib/gcc/riscv64-unknown-linux-musl/10.1.0/../../../../riscv64-unknown-linux-musl/lib/libc.a(__overflow.o)
 .data          0x00000002000121f0        0x0 /home/zbtrs/ospp/rt-thread/bsp/toolchain/riscv64-linux-musleabi_for_x86_64-pc-linux-gnu/bin/../lib/gcc/riscv64-unknown-linux-musl/10.1.0/../../../../riscv64-unknown-linux-musl/lib/libc.a(__stdio_close.o)
 .data          0x00000002000121f0        0x0 /home/zbtrs/ospp/rt-thread/bsp/toolchain/riscv64-linux-musleabi_for_x86_64-pc-linux-gnu/bin/../lib/gcc/riscv64-unknown-linux-musl/10.1.0/../../../../riscv64-unknown-linux-musl/lib/libc.a(__stdio_seek.o)
 .data          0x00000002000121f0        0x0 /home/zbtrs/ospp/rt-thread/bsp/toolchain/riscv64-linux-musleabi_for_x86_64-pc-linux-gnu/bin/../lib/gcc/riscv64-unknown-linux-musl/10.1.0/../../../../riscv64-unknown-linux-musl/lib/libc.a(__stdio_write.o)
 .data          0x00000002000121f0        0x0 /home/zbtrs/ospp/rt-thread/bsp/toolchain/riscv64-linux-musleabi_for_x86_64-pc-linux-gnu/bin/../lib/gcc/riscv64-unknown-linux-musl/10.1.0/../../../../riscv64-unknown-linux-musl/lib/libc.a(__stdout_write.o)
 .data          0x00000002000121f0        0x0 /home/zbtrs/ospp/rt-thread/bsp/toolchain/riscv64-linux-musleabi_for_x86_64-pc-linux-gnu/bin/../lib/gcc/riscv64-unknown-linux-musl/10.1.0/../../../../riscv64-unknown-linux-musl/lib/libc.a(__towrite.o)
 .data          0x00000002000121f0        0x0 /home/zbtrs/ospp/rt-thread/bsp/toolchain/riscv64-linux-musleabi_for_x86_64-pc-linux-gnu/bin/../lib/gcc/riscv64-unknown-linux-musl/10.1.0/../../../../riscv64-unknown-linux-musl/lib/libc.a(fputc.o)
 .data          0x00000002000121f0        0x0 /home/zbtrs/ospp/rt-thread/bsp/toolchain/riscv64-linux-musleabi_for_x86_64-pc-linux-gnu/bin/../lib/gcc/riscv64-unknown-linux-musl/10.1.0/../../../../riscv64-unknown-linux-musl/lib/libc.a(fputs.o)
 .data          0x00000002000121f0        0x0 /home/zbtrs/ospp/rt-thread/bsp/toolchain/riscv64-linux-musleabi_for_x86_64-pc-linux-gnu/bin/../lib/gcc/riscv64-unknown-linux-musl/10.1.0/../../../../riscv64-unknown-linux-musl/lib/libc.a(fwrite.o)
 .data          0x00000002000121f0        0x0 /home/zbtrs/ospp/rt-thread/bsp/toolchain/riscv64-linux-musleabi_for_x86_64-pc-linux-gnu/bin/../lib/gcc/riscv64-unknown-linux-musl/10.1.0/../../../../riscv64-unknown-linux-musl/lib/libc.a(ofl.o)
 .data          0x00000002000121f0        0x0 /home/zbtrs/ospp/rt-thread/bsp/toolchain/riscv64-linux-musleabi_for_x86_64-pc-linux-gnu/bin/../lib/gcc/riscv64-unknown-linux-musl/10.1.0/../../../../riscv64-unknown-linux-musl/lib/libc.a(putc.o)
 .data          0x00000002000121f0        0x0 /home/zbtrs/ospp/rt-thread/bsp/toolchain/riscv64-linux-musleabi_for_x86_64-pc-linux-gnu/bin/../lib/gcc/riscv64-unknown-linux-musl/10.1.0/../../../../riscv64-unknown-linux-musl/lib/libc.a(memchr.o)
 .data          0x00000002000121f0        0x0 /home/zbtrs/ospp/rt-thread/bsp/toolchain/riscv64-linux-musleabi_for_x86_64-pc-linux-gnu/bin/../lib/gcc/riscv64-unknown-linux-musl/10.1.0/../../../../riscv64-unknown-linux-musl/lib/libc.a(stpncpy.o)
 .data          0x00000002000121f0        0x0 /home/zbtrs/ospp/rt-thread/bsp/toolchain/riscv64-linux-musleabi_for_x86_64-pc-linux-gnu/bin/../lib/gcc/riscv64-unknown-linux-musl/10.1.0/../../../../riscv64-unknown-linux-musl/lib/libc.a(strchr.o)
 .data          0x00000002000121f0        0x0 /home/zbtrs/ospp/rt-thread/bsp/toolchain/riscv64-linux-musleabi_for_x86_64-pc-linux-gnu/bin/../lib/gcc/riscv64-unknown-linux-musl/10.1.0/../../../../riscv64-unknown-linux-musl/lib/libc.a(strchrnul.o)
 .data          0x00000002000121f0        0x0 /home/zbtrs/ospp/rt-thread/bsp/toolchain/riscv64-linux-musleabi_for_x86_64-pc-linux-gnu/bin/../lib/gcc/riscv64-unknown-linux-musl/10.1.0/../../../../riscv64-unknown-linux-musl/lib/libc.a(default_attr.o)
 .data          0x00000002000121f0        0x0 /home/zbtrs/ospp/rt-thread/bsp/toolchain/riscv64-linux-musleabi_for_x86_64-pc-linux-gnu/bin/../lib/gcc/riscv64-unknown-linux-musl/10.1.0/../../../../riscv64-unknown-linux-musl/lib/libc.a(clock_gettime.o)
 .data          0x00000002000121f0        0x0 /home/zbtrs/ospp/rt-thread/bsp/toolchain/riscv64-linux-musleabi_for_x86_64-pc-linux-gnu/bin/../lib/gcc/riscv64-unknown-linux-musl/10.1.0/../../../../riscv64-unknown-linux-musl/lib/libc.a(wcrtomb.o)
 .data          0x00000002000121f0        0x0 /home/zbtrs/ospp/rt-thread/bsp/toolchain/riscv64-linux-musleabi_for_x86_64-pc-linux-gnu/bin/../lib/gcc/riscv64-unknown-linux-musl/10.1.0/../../../../riscv64-unknown-linux-musl/lib/libc.a(__stdio_exit.o)
 .data          0x00000002000121f0        0x0 /home/zbtrs/ospp/rt-thread/bsp/toolchain/riscv64-linux-musleabi_for_x86_64-pc-linux-gnu/bin/../lib/gcc/riscv64-unknown-linux-musl/10.1.0/libgcc.a(addtf3.o)
 .data          0x00000002000121f0        0x0 /home/zbtrs/ospp/rt-thread/bsp/toolchain/riscv64-linux-musleabi_for_x86_64-pc-linux-gnu/bin/../lib/gcc/riscv64-unknown-linux-musl/10.1.0/libgcc.a(eqtf2.o)
 .data          0x00000002000121f0        0x0 /home/zbtrs/ospp/rt-thread/bsp/toolchain/riscv64-linux-musleabi_for_x86_64-pc-linux-gnu/bin/../lib/gcc/riscv64-unknown-linux-musl/10.1.0/libgcc.a(multf3.o)
 .data          0x00000002000121f0        0x0 /home/zbtrs/ospp/rt-thread/bsp/toolchain/riscv64-linux-musleabi_for_x86_64-pc-linux-gnu/bin/../lib/gcc/riscv64-unknown-linux-musl/10.1.0/libgcc.a(subtf3.o)
 .data          0x00000002000121f0        0x0 /home/zbtrs/ospp/rt-thread/bsp/toolchain/riscv64-linux-musleabi_for_x86_64-pc-linux-gnu/bin/../lib/gcc/riscv64-unknown-linux-musl/10.1.0/libgcc.a(fixtfsi.o)
 .data          0x00000002000121f0        0x0 /home/zbtrs/ospp/rt-thread/bsp/toolchain/riscv64-linux-musleabi_for_x86_64-pc-linux-gnu/bin/../lib/gcc/riscv64-unknown-linux-musl/10.1.0/libgcc.a(fixunstfsi.o)
 .data          0x00000002000121f0        0x0 /home/zbtrs/ospp/rt-thread/bsp/toolchain/riscv64-linux-musleabi_for_x86_64-pc-linux-gnu/bin/../lib/gcc/riscv64-unknown-linux-musl/10.1.0/libgcc.a(floatsitf.o)
 .data          0x00000002000121f0        0x0 /home/zbtrs/ospp/rt-thread/bsp/toolchain/riscv64-linux-musleabi_for_x86_64-pc-linux-gnu/bin/../lib/gcc/riscv64-unknown-linux-musl/10.1.0/libgcc.a(floatunsitf.o)
 .data          0x00000002000121f0        0x0 /home/zbtrs/ospp/rt-thread/bsp/toolchain/riscv64-linux-musleabi_for_x86_64-pc-linux-gnu/bin/../lib/gcc/riscv64-unknown-linux-musl/10.1.0/libgcc.a(extenddftf2.o)
 .data          0x00000002000121f0        0x0 /home/zbtrs/ospp/rt-thread/bsp/toolchain/riscv64-linux-musleabi_for_x86_64-pc-linux-gnu/bin/../lib/gcc/riscv64-unknown-linux-musl/10.1.0/libgcc.a(_clzsi2.o)
 .data          0x00000002000121f0        0x0 /home/zbtrs/ospp/rt-thread/bsp/toolchain/riscv64-linux-musleabi_for_x86_64-pc-linux-gnu/bin/../lib/gcc/riscv64-unknown-linux-musl/10.1.0/libgcc.a(_clz.o)
 .data          0x00000002000121f0        0x0 /home/zbtrs/ospp/rt-thread/bsp/toolchain/riscv64-linux-musleabi_for_x86_64-pc-linux-gnu/bin/../lib/gcc/riscv64-unknown-linux-musl/10.1.0/crtend.o
 .data          0x00000002000121f0        0x0 /home/zbtrs/ospp/rt-thread/bsp/toolchain/riscv64-linux-musleabi_for_x86_64-pc-linux-gnu/bin/../lib/gcc/riscv64-unknown-linux-musl/10.1.0/crtn.o
                0x00000002000121f0                . = ALIGN (0x8)
                [!provide]                        PROVIDE (__preinit_array_start = .)
 *(.preinit_array)
                [!provide]                        PROVIDE (__preinit_array_end = .)
                0x00000002000121f0                . = ALIGN (0x8)
                0x00000002000121f0                PROVIDE (__init_array_start = .)
 *(SORT_BY_NAME(.init_array.*))
 *(.init_array)
 .init_array    0x00000002000121f0        0x8 /home/zbtrs/ospp/rt-thread/bsp/toolchain/riscv64-linux-musleabi_for_x86_64-pc-linux-gnu/bin/../lib/gcc/riscv64-unknown-linux-musl/10.1.0/crtbeginT.o
                0x00000002000121f8                PROVIDE (__init_array_end = .)
                0x00000002000121f8                . = ALIGN (0x8)
                0x00000002000121f8                PROVIDE (__fini_array_start = .)
 *(SORT_BY_NAME(.fini_array.*))
 *(.fini_array)
 .fini_array    0x00000002000121f8        0x8 /home/zbtrs/ospp/rt-thread/bsp/toolchain/riscv64-linux-musleabi_for_x86_64-pc-linux-gnu/bin/../lib/gcc/riscv64-unknown-linux-musl/10.1.0/crtbeginT.o
                0x0000000200012200                PROVIDE (__fini_array_end = .)
                0x0000000200012200                . = ALIGN (0x8)
                0x0000000200012200                __data_end__ = .

.tm_clone_table
                0x0000000200012200        0x0
 .tm_clone_table
                0x0000000200012200        0x0 /home/zbtrs/ospp/rt-thread/bsp/toolchain/riscv64-linux-musleabi_for_x86_64-pc-linux-gnu/bin/../lib/gcc/riscv64-unknown-linux-musl/10.1.0/crtbeginT.o
 .tm_clone_table
                0x0000000200012200        0x0 /home/zbtrs/ospp/rt-thread/bsp/toolchain/riscv64-linux-musleabi_for_x86_64-pc-linux-gnu/bin/../lib/gcc/riscv64-unknown-linux-musl/10.1.0/crtend.o

.sdata          0x0000000200012200        0x8
 .sdata         0x0000000200012200        0x8 /home/zbtrs/ospp/rt-thread/bsp/toolchain/riscv64-linux-musleabi_for_x86_64-pc-linux-gnu/bin/../lib/gcc/riscv64-unknown-linux-musl/10.1.0/crtbeginT.o
                0x0000000200012200                __dso_handle

.sdata.__stderr_used
                0x0000000200012208        0x8
 .sdata.__stderr_used
                0x0000000200012208        0x8 /home/zbtrs/ospp/rt-thread/bsp/toolchain/riscv64-linux-musleabi_for_x86_64-pc-linux-gnu/bin/../lib/gcc/riscv64-unknown-linux-musl/10.1.0/../../../../riscv64-unknown-linux-musl/lib/libc.a(stderr.o)
                0x0000000200012208                __stderr_used

.sdata.__stdout_used
                0x0000000200012210        0x8
 .sdata.__stdout_used
                0x0000000200012210        0x8 /home/zbtrs/ospp/rt-thread/bsp/toolchain/riscv64-linux-musleabi_for_x86_64-pc-linux-gnu/bin/../lib/gcc/riscv64-unknown-linux-musl/10.1.0/../../../../riscv64-unknown-linux-musl/lib/libc.a(stdout.o)
                0x0000000200012210                __stdout_used

.sdata.opterr   0x0000000200012218        0x4
 .sdata.opterr  0x0000000200012218        0x4 /home/zbtrs/ospp/rt-thread/bsp/toolchain/riscv64-linux-musleabi_for_x86_64-pc-linux-gnu/bin/../lib/gcc/riscv64-unknown-linux-musl/10.1.0/../../../../riscv64-unknown-linux-musl/lib/libc.a(getopt.o)
                0x0000000200012218                opterr

.sdata.optind   0x000000020001221c        0x4
 .sdata.optind  0x000000020001221c        0x4 /home/zbtrs/ospp/rt-thread/bsp/toolchain/riscv64-linux-musleabi_for_x86_64-pc-linux-gnu/bin/../lib/gcc/riscv64-unknown-linux-musl/10.1.0/../../../../riscv64-unknown-linux-musl/lib/libc.a(getopt.o)
                0x000000020001221c                optind

.sdata.__default_guardsize
                0x0000000200012220        0x4
 .sdata.__default_guardsize
                0x0000000200012220        0x4 /home/zbtrs/ospp/rt-thread/bsp/toolchain/riscv64-linux-musleabi_for_x86_64-pc-linux-gnu/bin/../lib/gcc/riscv64-unknown-linux-musl/10.1.0/../../../../riscv64-unknown-linux-musl/lib/libc.a(default_attr.o)
                0x0000000200012220                __default_guardsize

.sdata.__default_stacksize
                0x0000000200012224        0x4
 .sdata.__default_stacksize
                0x0000000200012224        0x4 /home/zbtrs/ospp/rt-thread/bsp/toolchain/riscv64-linux-musleabi_for_x86_64-pc-linux-gnu/bin/../lib/gcc/riscv64-unknown-linux-musl/10.1.0/../../../../riscv64-unknown-linux-musl/lib/libc.a(default_attr.o)
                0x0000000200012224                __default_stacksize

bss             0x0000000200012228      0xc88
                0x0000000200012228                __bss_start__ = .
 *(.bss*)
 .bss           0x0000000200012228        0x0 /home/zbtrs/ospp/rt-thread/bsp/toolchain/riscv64-linux-musleabi_for_x86_64-pc-linux-gnu/bin/../lib/gcc/riscv64-unknown-linux-musl/10.1.0/../../../../riscv64-unknown-linux-musl/lib/crt1.o
 .bss           0x0000000200012228        0x0 /home/zbtrs/ospp/rt-thread/bsp/toolchain/riscv64-linux-musleabi_for_x86_64-pc-linux-gnu/bin/../lib/gcc/riscv64-unknown-linux-musl/10.1.0/crti.o
 .bss           0x0000000200012228       0x38 /home/zbtrs/ospp/rt-thread/bsp/toolchain/riscv64-linux-musleabi_for_x86_64-pc-linux-gnu/bin/../lib/gcc/riscv64-unknown-linux-musl/10.1.0/crtbeginT.o
 .bss           0x0000000200012260        0x0 /home/zbtrs/ospp/userapps/sdk/rt-thread/lib/risc-v/rv64gc//librtthread.a(rt_channel.o)
 .bss           0x0000000200012260        0x0 /home/zbtrs/ospp/userapps/sdk/rt-thread/lib/risc-v/rv64gc//librtthread.a(rt_completion.o)
 .bss           0x0000000200012260        0x0 /home/zbtrs/ospp/userapps/sdk/rt-thread/lib/risc-v/rv64gc//librtthread.a(rt_device.o)
 .bss           0x0000000200012260        0x0 /home/zbtrs/ospp/userapps/sdk/rt-thread/lib/risc-v/rv64gc//librtthread.a(rt_ipc.o)
 .bss           0x0000000200012260        0x0 /home/zbtrs/ospp/userapps/sdk/rt-thread/lib/risc-v/rv64gc//librtthread.a(rt_net.o)
 .bss           0x0000000200012260        0x0 /home/zbtrs/ospp/userapps/sdk/rt-thread/lib/risc-v/rv64gc//librtthread.a(rt_syscall.o)
 .bss           0x0000000200012260        0x0 /home/zbtrs/ospp/userapps/sdk/rt-thread/lib/risc-v/rv64gc//librtthread.a(rt_thread.o)
 .bss           0x0000000200012260       0x2c /home/zbtrs/ospp/userapps/sdk/rt-thread/lib/risc-v/rv64gc//librtthread.a(rt_timer.o)
 .bss           0x000000020001228c        0x0 /home/zbtrs/ospp/userapps/sdk/rt-thread/lib/risc-v/rv64gc//librtthread.a(stub.o)
 .bss           0x000000020001228c        0x0 /tmp/cc2olldp.o
 .bss           0x000000020001228c        0x0 /home/zbtrs/ospp/rt-thread/bsp/toolchain/riscv64-linux-musleabi_for_x86_64-pc-linux-gnu/bin/../lib/gcc/riscv64-unknown-linux-musl/10.1.0/../../../../riscv64-unknown-linux-musl/lib/libc.a(__libc_start_main.o)
 .bss           0x000000020001228c        0x0 /home/zbtrs/ospp/rt-thread/bsp/toolchain/riscv64-linux-musleabi_for_x86_64-pc-linux-gnu/bin/../lib/gcc/riscv64-unknown-linux-musl/10.1.0/../../../../riscv64-unknown-linux-musl/lib/libc.a(__errno_location.o)
 .bss           0x000000020001228c        0x0 /home/zbtrs/ospp/rt-thread/bsp/toolchain/riscv64-linux-musleabi_for_x86_64-pc-linux-gnu/bin/../lib/gcc/riscv64-unknown-linux-musl/10.1.0/../../../../riscv64-unknown-linux-musl/lib/libc.a(strerror.o)
 .bss           0x000000020001228c        0x0 /home/zbtrs/ospp/rt-thread/bsp/toolchain/riscv64-linux-musleabi_for_x86_64-pc-linux-gnu/bin/../lib/gcc/riscv64-unknown-linux-musl/10.1.0/../../../../riscv64-unknown-linux-musl/lib/libc.a(exit.o)
 .bss           0x000000020001228c        0x0 /home/zbtrs/ospp/rt-thread/bsp/toolchain/riscv64-linux-musleabi_for_x86_64-pc-linux-gnu/bin/../lib/gcc/riscv64-unknown-linux-musl/10.1.0/../../../../riscv64-unknown-linux-musl/lib/libc.a(fcntl.o)
 .bss           0x000000020001228c        0x0 /home/zbtrs/ospp/rt-thread/bsp/toolchain/riscv64-linux-musleabi_for_x86_64-pc-linux-gnu/bin/../lib/gcc/riscv64-unknown-linux-musl/10.1.0/../../../../riscv64-unknown-linux-musl/lib/libc.a(libc.o)
 *fill*         0x000000020001228c        0x4 
 .bss.__libc    0x0000000200012290       0x70 /home/zbtrs/ospp/rt-thread/bsp/toolchain/riscv64-linux-musleabi_for_x86_64-pc-linux-gnu/bin/../lib/gcc/riscv64-unknown-linux-musl/10.1.0/../../../../riscv64-unknown-linux-musl/lib/libc.a(libc.o)
                0x0000000200012290                __libc
 .bss           0x0000000200012300        0x0 /home/zbtrs/ospp/rt-thread/bsp/toolchain/riscv64-linux-musleabi_for_x86_64-pc-linux-gnu/bin/../lib/gcc/riscv64-unknown-linux-musl/10.1.0/../../../../riscv64-unknown-linux-musl/lib/libc.a(syscall.o)
 .bss           0x0000000200012300        0x0 /home/zbtrs/ospp/rt-thread/bsp/toolchain/riscv64-linux-musleabi_for_x86_64-pc-linux-gnu/bin/../lib/gcc/riscv64-unknown-linux-musl/10.1.0/../../../../riscv64-unknown-linux-musl/lib/libc.a(syscall.o)
 .bss           0x0000000200012300        0x0 /home/zbtrs/ospp/rt-thread/bsp/toolchain/riscv64-linux-musleabi_for_x86_64-pc-linux-gnu/bin/../lib/gcc/riscv64-unknown-linux-musl/10.1.0/../../../../riscv64-unknown-linux-musl/lib/libc.a(syscall_ret.o)
 .bss           0x0000000200012300        0x0 /home/zbtrs/ospp/rt-thread/bsp/toolchain/riscv64-linux-musleabi_for_x86_64-pc-linux-gnu/bin/../lib/gcc/riscv64-unknown-linux-musl/10.1.0/../../../../riscv64-unknown-linux-musl/lib/libc.a(__lctrans.o)
 .bss           0x0000000200012300        0x0 /home/zbtrs/ospp/rt-thread/bsp/toolchain/riscv64-linux-musleabi_for_x86_64-pc-linux-gnu/bin/../lib/gcc/riscv64-unknown-linux-musl/10.1.0/../../../../riscv64-unknown-linux-musl/lib/libc.a(lite_malloc.o)
 .bss           0x0000000200012300        0x0 /home/zbtrs/ospp/rt-thread/bsp/toolchain/riscv64-linux-musleabi_for_x86_64-pc-linux-gnu/bin/../lib/gcc/riscv64-unknown-linux-musl/10.1.0/../../../../riscv64-unknown-linux-musl/lib/libc.a(malloc.o)
 .bss.mal       0x0000000200012300      0x610 /home/zbtrs/ospp/rt-thread/bsp/toolchain/riscv64-linux-musleabi_for_x86_64-pc-linux-gnu/bin/../lib/gcc/riscv64-unknown-linux-musl/10.1.0/../../../../riscv64-unknown-linux-musl/lib/libc.a(malloc.o)
 .bss           0x0000000200012910        0x0 /home/zbtrs/ospp/rt-thread/bsp/toolchain/riscv64-linux-musleabi_for_x86_64-pc-linux-gnu/bin/../lib/gcc/riscv64-unknown-linux-musl/10.1.0/../../../../riscv64-unknown-linux-musl/lib/libc.a(getopt_long.o)
 .bss           0x0000000200012910        0x0 /home/zbtrs/ospp/rt-thread/bsp/toolchain/riscv64-linux-musleabi_for_x86_64-pc-linux-gnu/bin/../lib/gcc/riscv64-unknown-linux-musl/10.1.0/../../../../riscv64-unknown-linux-musl/lib/libc.a(madvise.o)
 .bss           0x0000000200012910        0x0 /home/zbtrs/ospp/rt-thread/bsp/toolchain/riscv64-linux-musleabi_for_x86_64-pc-linux-gnu/bin/../lib/gcc/riscv64-unknown-linux-musl/10.1.0/../../../../riscv64-unknown-linux-musl/lib/libc.a(mmap.o)
 .bss           0x0000000200012910        0x0 /home/zbtrs/ospp/rt-thread/bsp/toolchain/riscv64-linux-musleabi_for_x86_64-pc-linux-gnu/bin/../lib/gcc/riscv64-unknown-linux-musl/10.1.0/../../../../riscv64-unknown-linux-musl/lib/libc.a(mremap.o)
 .bss           0x0000000200012910        0x0 /home/zbtrs/ospp/rt-thread/bsp/toolchain/riscv64-linux-musleabi_for_x86_64-pc-linux-gnu/bin/../lib/gcc/riscv64-unknown-linux-musl/10.1.0/../../../../riscv64-unknown-linux-musl/lib/libc.a(munmap.o)
 .bss           0x0000000200012910        0x0 /home/zbtrs/ospp/rt-thread/bsp/toolchain/riscv64-linux-musleabi_for_x86_64-pc-linux-gnu/bin/../lib/gcc/riscv64-unknown-linux-musl/10.1.0/../../../../riscv64-unknown-linux-musl/lib/libc.a(mblen.o)
 .bss           0x0000000200012910        0x0 /home/zbtrs/ospp/rt-thread/bsp/toolchain/riscv64-linux-musleabi_for_x86_64-pc-linux-gnu/bin/../lib/gcc/riscv64-unknown-linux-musl/10.1.0/../../../../riscv64-unknown-linux-musl/lib/libc.a(mbtowc.o)
 .bss           0x0000000200012910        0x0 /home/zbtrs/ospp/rt-thread/bsp/toolchain/riscv64-linux-musleabi_for_x86_64-pc-linux-gnu/bin/../lib/gcc/riscv64-unknown-linux-musl/10.1.0/../../../../riscv64-unknown-linux-musl/lib/libc.a(accept.o)
 .bss           0x0000000200012910        0x0 /home/zbtrs/ospp/rt-thread/bsp/toolchain/riscv64-linux-musleabi_for_x86_64-pc-linux-gnu/bin/../lib/gcc/riscv64-unknown-linux-musl/10.1.0/../../../../riscv64-unknown-linux-musl/lib/libc.a(bind.o)
 .bss           0x0000000200012910        0x0 /home/zbtrs/ospp/rt-thread/bsp/toolchain/riscv64-linux-musleabi_for_x86_64-pc-linux-gnu/bin/../lib/gcc/riscv64-unknown-linux-musl/10.1.0/../../../../riscv64-unknown-linux-musl/lib/libc.a(connect.o)
 .bss           0x0000000200012910        0x0 /home/zbtrs/ospp/rt-thread/bsp/toolchain/riscv64-linux-musleabi_for_x86_64-pc-linux-gnu/bin/../lib/gcc/riscv64-unknown-linux-musl/10.1.0/../../../../riscv64-unknown-linux-musl/lib/libc.a(htonl.o)
 .bss           0x0000000200012910        0x0 /home/zbtrs/ospp/rt-thread/bsp/toolchain/riscv64-linux-musleabi_for_x86_64-pc-linux-gnu/bin/../lib/gcc/riscv64-unknown-linux-musl/10.1.0/../../../../riscv64-unknown-linux-musl/lib/libc.a(htons.o)
 .bss           0x0000000200012910        0x0 /home/zbtrs/ospp/rt-thread/bsp/toolchain/riscv64-linux-musleabi_for_x86_64-pc-linux-gnu/bin/../lib/gcc/riscv64-unknown-linux-musl/10.1.0/../../../../riscv64-unknown-linux-musl/lib/libc.a(listen.o)
 .bss           0x0000000200012910        0x0 /home/zbtrs/ospp/rt-thread/bsp/toolchain/riscv64-linux-musleabi_for_x86_64-pc-linux-gnu/bin/../lib/gcc/riscv64-unknown-linux-musl/10.1.0/../../../../riscv64-unknown-linux-musl/lib/libc.a(setsockopt.o)
 .bss           0x0000000200012910        0x0 /home/zbtrs/ospp/rt-thread/bsp/toolchain/riscv64-linux-musleabi_for_x86_64-pc-linux-gnu/bin/../lib/gcc/riscv64-unknown-linux-musl/10.1.0/../../../../riscv64-unknown-linux-musl/lib/libc.a(socket.o)
 .bss           0x0000000200012910        0x0 /home/zbtrs/ospp/rt-thread/bsp/toolchain/riscv64-linux-musleabi_for_x86_64-pc-linux-gnu/bin/../lib/gcc/riscv64-unknown-linux-musl/10.1.0/../../../../riscv64-unknown-linux-musl/lib/libc.a(rand.o)
 .bss           0x0000000200012910        0x0 /home/zbtrs/ospp/rt-thread/bsp/toolchain/riscv64-linux-musleabi_for_x86_64-pc-linux-gnu/bin/../lib/gcc/riscv64-unknown-linux-musl/10.1.0/../../../../riscv64-unknown-linux-musl/lib/libc.a(select.o)
 .bss           0x0000000200012910        0x0 /home/zbtrs/ospp/rt-thread/bsp/toolchain/riscv64-linux-musleabi_for_x86_64-pc-linux-gnu/bin/../lib/gcc/riscv64-unknown-linux-musl/10.1.0/../../../../riscv64-unknown-linux-musl/lib/libc.a(perror.o)
 .bss           0x0000000200012910        0x0 /home/zbtrs/ospp/rt-thread/bsp/toolchain/riscv64-linux-musleabi_for_x86_64-pc-linux-gnu/bin/../lib/gcc/riscv64-unknown-linux-musl/10.1.0/../../../../riscv64-unknown-linux-musl/lib/libc.a(printf.o)
 .bss           0x0000000200012910        0x0 /home/zbtrs/ospp/rt-thread/bsp/toolchain/riscv64-linux-musleabi_for_x86_64-pc-linux-gnu/bin/../lib/gcc/riscv64-unknown-linux-musl/10.1.0/../../../../riscv64-unknown-linux-musl/lib/libc.a(puts.o)
 .bss           0x0000000200012910        0x0 /home/zbtrs/ospp/rt-thread/bsp/toolchain/riscv64-linux-musleabi_for_x86_64-pc-linux-gnu/bin/../lib/gcc/riscv64-unknown-linux-musl/10.1.0/../../../../riscv64-unknown-linux-musl/lib/libc.a(stderr.o)
 .bss           0x0000000200012910        0x0 /home/zbtrs/ospp/rt-thread/bsp/toolchain/riscv64-linux-musleabi_for_x86_64-pc-linux-gnu/bin/../lib/gcc/riscv64-unknown-linux-musl/10.1.0/../../../../riscv64-unknown-linux-musl/lib/libc.a(stdout.o)
 .bss.buf       0x0000000200012910      0x408 /home/zbtrs/ospp/rt-thread/bsp/toolchain/riscv64-linux-musleabi_for_x86_64-pc-linux-gnu/bin/../lib/gcc/riscv64-unknown-linux-musl/10.1.0/../../../../riscv64-unknown-linux-musl/lib/libc.a(stdout.o)
 .bss           0x0000000200012d18        0x0 /home/zbtrs/ospp/rt-thread/bsp/toolchain/riscv64-linux-musleabi_for_x86_64-pc-linux-gnu/bin/../lib/gcc/riscv64-unknown-linux-musl/10.1.0/../../../../riscv64-unknown-linux-musl/lib/libc.a(vfprintf.o)
 .bss           0x0000000200012d18        0x0 /home/zbtrs/ospp/rt-thread/bsp/toolchain/riscv64-linux-musleabi_for_x86_64-pc-linux-gnu/bin/../lib/gcc/riscv64-unknown-linux-musl/10.1.0/../../../../riscv64-unknown-linux-musl/lib/libc.a(vsnprintf.o)
 .bss           0x0000000200012d18        0x0 /home/zbtrs/ospp/rt-thread/bsp/toolchain/riscv64-linux-musleabi_for_x86_64-pc-linux-gnu/bin/../lib/gcc/riscv64-unknown-linux-musl/10.1.0/../../../../riscv64-unknown-linux-musl/lib/libc.a(vsprintf.o)
 .bss           0x0000000200012d18        0x0 /home/zbtrs/ospp/rt-thread/bsp/toolchain/riscv64-linux-musleabi_for_x86_64-pc-linux-gnu/bin/../lib/gcc/riscv64-unknown-linux-musl/10.1.0/../../../../riscv64-unknown-linux-musl/lib/libc.a(memcmp.o)
 .bss           0x0000000200012d18        0x0 /home/zbtrs/ospp/rt-thread/bsp/toolchain/riscv64-linux-musleabi_for_x86_64-pc-linux-gnu/bin/../lib/gcc/riscv64-unknown-linux-musl/10.1.0/../../../../riscv64-unknown-linux-musl/lib/libc.a(memcpy.o)
 .bss           0x0000000200012d18        0x0 /home/zbtrs/ospp/rt-thread/bsp/toolchain/riscv64-linux-musleabi_for_x86_64-pc-linux-gnu/bin/../lib/gcc/riscv64-unknown-linux-musl/10.1.0/../../../../riscv64-unknown-linux-musl/lib/libc.a(memmove.o)
 .bss           0x0000000200012d18        0x0 /home/zbtrs/ospp/rt-thread/bsp/toolchain/riscv64-linux-musleabi_for_x86_64-pc-linux-gnu/bin/../lib/gcc/riscv64-unknown-linux-musl/10.1.0/../../../../riscv64-unknown-linux-musl/lib/libc.a(memset.o)
 .bss           0x0000000200012d18        0x0 /home/zbtrs/ospp/rt-thread/bsp/toolchain/riscv64-linux-musleabi_for_x86_64-pc-linux-gnu/bin/../lib/gcc/riscv64-unknown-linux-musl/10.1.0/../../../../riscv64-unknown-linux-musl/lib/libc.a(strcasecmp.o)
 .bss           0x0000000200012d18        0x0 /home/zbtrs/ospp/rt-thread/bsp/toolchain/riscv64-linux-musleabi_for_x86_64-pc-linux-gnu/bin/../lib/gcc/riscv64-unknown-linux-musl/10.1.0/../../../../riscv64-unknown-linux-musl/lib/libc.a(strcmp.o)
 .bss           0x0000000200012d18        0x0 /home/zbtrs/ospp/rt-thread/bsp/toolchain/riscv64-linux-musleabi_for_x86_64-pc-linux-gnu/bin/../lib/gcc/riscv64-unknown-linux-musl/10.1.0/../../../../riscv64-unknown-linux-musl/lib/libc.a(strdup.o)
 .bss           0x0000000200012d18        0x0 /home/zbtrs/ospp/rt-thread/bsp/toolchain/riscv64-linux-musleabi_for_x86_64-pc-linux-gnu/bin/../lib/gcc/riscv64-unknown-linux-musl/10.1.0/../../../../riscv64-unknown-linux-musl/lib/libc.a(strlen.o)
 .bss           0x0000000200012d18        0x0 /home/zbtrs/ospp/rt-thread/bsp/toolchain/riscv64-linux-musleabi_for_x86_64-pc-linux-gnu/bin/../lib/gcc/riscv64-unknown-linux-musl/10.1.0/../../../../riscv64-unknown-linux-musl/lib/libc.a(strncmp.o)
 .bss           0x0000000200012d18        0x0 /home/zbtrs/ospp/rt-thread/bsp/toolchain/riscv64-linux-musleabi_for_x86_64-pc-linux-gnu/bin/../lib/gcc/riscv64-unknown-linux-musl/10.1.0/../../../../riscv64-unknown-linux-musl/lib/libc.a(strncpy.o)
 .bss           0x0000000200012d18        0x0 /home/zbtrs/ospp/rt-thread/bsp/toolchain/riscv64-linux-musleabi_for_x86_64-pc-linux-gnu/bin/../lib/gcc/riscv64-unknown-linux-musl/10.1.0/../../../../riscv64-unknown-linux-musl/lib/libc.a(strnlen.o)
 .bss           0x0000000200012d18        0x0 /home/zbtrs/ospp/rt-thread/bsp/toolchain/riscv64-linux-musleabi_for_x86_64-pc-linux-gnu/bin/../lib/gcc/riscv64-unknown-linux-musl/10.1.0/../../../../riscv64-unknown-linux-musl/lib/libc.a(strstr.o)
 .bss           0x0000000200012d18        0x0 /home/zbtrs/ospp/rt-thread/bsp/toolchain/riscv64-linux-musleabi_for_x86_64-pc-linux-gnu/bin/../lib/gcc/riscv64-unknown-linux-musl/10.1.0/../../../../riscv64-unknown-linux-musl/lib/libc.a(__lock.o)
 .bss           0x0000000200012d18        0x0 /home/zbtrs/ospp/rt-thread/bsp/toolchain/riscv64-linux-musleabi_for_x86_64-pc-linux-gnu/bin/../lib/gcc/riscv64-unknown-linux-musl/10.1.0/../../../../riscv64-unknown-linux-musl/lib/libc.a(__syscall_cp.o)
 .bss           0x0000000200012d18        0x0 /home/zbtrs/ospp/rt-thread/bsp/toolchain/riscv64-linux-musleabi_for_x86_64-pc-linux-gnu/bin/../lib/gcc/riscv64-unknown-linux-musl/10.1.0/../../../../riscv64-unknown-linux-musl/lib/libc.a(__wait.o)
 .bss           0x0000000200012d18        0x0 /home/zbtrs/ospp/rt-thread/bsp/toolchain/riscv64-linux-musleabi_for_x86_64-pc-linux-gnu/bin/../lib/gcc/riscv64-unknown-linux-musl/10.1.0/../../../../riscv64-unknown-linux-musl/lib/libc.a(pthread_create.o)
 .bss           0x0000000200012d18        0x0 /home/zbtrs/ospp/rt-thread/bsp/toolchain/riscv64-linux-musleabi_for_x86_64-pc-linux-gnu/bin/../lib/gcc/riscv64-unknown-linux-musl/10.1.0/../../../../riscv64-unknown-linux-musl/lib/libc.a(__set_thread_area.o)
 .bss           0x0000000200012d18        0x0 /home/zbtrs/ospp/rt-thread/bsp/toolchain/riscv64-linux-musleabi_for_x86_64-pc-linux-gnu/bin/../lib/gcc/riscv64-unknown-linux-musl/10.1.0/../../../../riscv64-unknown-linux-musl/lib/libc.a(__unmapself.o)
 .bss           0x0000000200012d18        0x0 /home/zbtrs/ospp/rt-thread/bsp/toolchain/riscv64-linux-musleabi_for_x86_64-pc-linux-gnu/bin/../lib/gcc/riscv64-unknown-linux-musl/10.1.0/../../../../riscv64-unknown-linux-musl/lib/libc.a(clone.o)
 .bss           0x0000000200012d18        0x0 /home/zbtrs/ospp/rt-thread/bsp/toolchain/riscv64-linux-musleabi_for_x86_64-pc-linux-gnu/bin/../lib/gcc/riscv64-unknown-linux-musl/10.1.0/../../../../riscv64-unknown-linux-musl/lib/libc.a(vmlock.o)
 .bss           0x0000000200012d18        0x0 /home/zbtrs/ospp/rt-thread/bsp/toolchain/riscv64-linux-musleabi_for_x86_64-pc-linux-gnu/bin/../lib/gcc/riscv64-unknown-linux-musl/10.1.0/../../../../riscv64-unknown-linux-musl/lib/libc.a(time.o)
 .bss           0x0000000200012d18        0x0 /home/zbtrs/ospp/rt-thread/bsp/toolchain/riscv64-linux-musleabi_for_x86_64-pc-linux-gnu/bin/../lib/gcc/riscv64-unknown-linux-musl/10.1.0/../../../../riscv64-unknown-linux-musl/lib/libc.a(close.o)
 .bss           0x0000000200012d18        0x0 /home/zbtrs/ospp/rt-thread/bsp/toolchain/riscv64-linux-musleabi_for_x86_64-pc-linux-gnu/bin/../lib/gcc/riscv64-unknown-linux-musl/10.1.0/../../../../riscv64-unknown-linux-musl/lib/libc.a(tolower.o)
 .bss           0x0000000200012d18        0x0 /home/zbtrs/ospp/rt-thread/bsp/toolchain/riscv64-linux-musleabi_for_x86_64-pc-linux-gnu/bin/../lib/gcc/riscv64-unknown-linux-musl/10.1.0/../../../../riscv64-unknown-linux-musl/lib/libc.a(__environ.o)
 .bss           0x0000000200012d18        0x0 /home/zbtrs/ospp/rt-thread/bsp/toolchain/riscv64-linux-musleabi_for_x86_64-pc-linux-gnu/bin/../lib/gcc/riscv64-unknown-linux-musl/10.1.0/../../../../riscv64-unknown-linux-musl/lib/libc.a(__init_tls.o)
 .bss.builtin_tls
                0x0000000200012d18      0x168 /home/zbtrs/ospp/rt-thread/bsp/toolchain/riscv64-linux-musleabi_for_x86_64-pc-linux-gnu/bin/../lib/gcc/riscv64-unknown-linux-musl/10.1.0/../../../../riscv64-unknown-linux-musl/lib/libc.a(__init_tls.o)
 .bss.main_tls  0x0000000200012e80       0x30 /home/zbtrs/ospp/rt-thread/bsp/toolchain/riscv64-linux-musleabi_for_x86_64-pc-linux-gnu/bin/../lib/gcc/riscv64-unknown-linux-musl/10.1.0/../../../../riscv64-unknown-linux-musl/lib/libc.a(__init_tls.o)
 .bss           0x0000000200012eb0        0x0 /home/zbtrs/ospp/rt-thread/bsp/toolchain/riscv64-linux-musleabi_for_x86_64-pc-linux-gnu/bin/../lib/gcc/riscv64-unknown-linux-musl/10.1.0/../../../../riscv64-unknown-linux-musl/lib/libc.a(__stack_chk_fail.o)
 .bss           0x0000000200012eb0        0x0 /home/zbtrs/ospp/rt-thread/bsp/toolchain/riscv64-linux-musleabi_for_x86_64-pc-linux-gnu/bin/../lib/gcc/riscv64-unknown-linux-musl/10.1.0/../../../../riscv64-unknown-linux-musl/lib/libc.a(_Exit.o)
 .bss           0x0000000200012eb0        0x0 /home/zbtrs/ospp/rt-thread/bsp/toolchain/riscv64-linux-musleabi_for_x86_64-pc-linux-gnu/bin/../lib/gcc/riscv64-unknown-linux-musl/10.1.0/../../../../riscv64-unknown-linux-musl/lib/libc.a(expand_heap.o)
 .bss           0x0000000200012eb0        0x0 /home/zbtrs/ospp/rt-thread/bsp/toolchain/riscv64-linux-musleabi_for_x86_64-pc-linux-gnu/bin/../lib/gcc/riscv64-unknown-linux-musl/10.1.0/../../../../riscv64-unknown-linux-musl/lib/libc.a(__fpclassifyl.o)
 .bss           0x0000000200012eb0        0x0 /home/zbtrs/ospp/rt-thread/bsp/toolchain/riscv64-linux-musleabi_for_x86_64-pc-linux-gnu/bin/../lib/gcc/riscv64-unknown-linux-musl/10.1.0/../../../../riscv64-unknown-linux-musl/lib/libc.a(__signbitl.o)
 .bss           0x0000000200012eb0        0x0 /home/zbtrs/ospp/rt-thread/bsp/toolchain/riscv64-linux-musleabi_for_x86_64-pc-linux-gnu/bin/../lib/gcc/riscv64-unknown-linux-musl/10.1.0/../../../../riscv64-unknown-linux-musl/lib/libc.a(frexpl.o)
 .bss           0x0000000200012eb0        0x0 /home/zbtrs/ospp/rt-thread/bsp/toolchain/riscv64-linux-musleabi_for_x86_64-pc-linux-gnu/bin/../lib/gcc/riscv64-unknown-linux-musl/10.1.0/../../../../riscv64-unknown-linux-musl/lib/libc.a(getopt.o)
 .bss           0x0000000200012eb0        0x0 /home/zbtrs/ospp/rt-thread/bsp/toolchain/riscv64-linux-musleabi_for_x86_64-pc-linux-gnu/bin/../lib/gcc/riscv64-unknown-linux-musl/10.1.0/../../../../riscv64-unknown-linux-musl/lib/libc.a(mprotect.o)
 .bss           0x0000000200012eb0        0x0 /home/zbtrs/ospp/rt-thread/bsp/toolchain/riscv64-linux-musleabi_for_x86_64-pc-linux-gnu/bin/../lib/gcc/riscv64-unknown-linux-musl/10.1.0/../../../../riscv64-unknown-linux-musl/lib/libc.a(internal.o)
 .bss           0x0000000200012eb0        0x0 /home/zbtrs/ospp/rt-thread/bsp/toolchain/riscv64-linux-musleabi_for_x86_64-pc-linux-gnu/bin/../lib/gcc/riscv64-unknown-linux-musl/10.1.0/../../../../riscv64-unknown-linux-musl/lib/libc.a(wctomb.o)
 .bss           0x0000000200012eb0        0x0 /home/zbtrs/ospp/rt-thread/bsp/toolchain/riscv64-linux-musleabi_for_x86_64-pc-linux-gnu/bin/../lib/gcc/riscv64-unknown-linux-musl/10.1.0/../../../../riscv64-unknown-linux-musl/lib/libc.a(block.o)
 .bss           0x0000000200012eb0        0x0 /home/zbtrs/ospp/rt-thread/bsp/toolchain/riscv64-linux-musleabi_for_x86_64-pc-linux-gnu/bin/../lib/gcc/riscv64-unknown-linux-musl/10.1.0/../../../../riscv64-unknown-linux-musl/lib/libc.a(__lockfile.o)
 .bss           0x0000000200012eb0        0x0 /home/zbtrs/ospp/rt-thread/bsp/toolchain/riscv64-linux-musleabi_for_x86_64-pc-linux-gnu/bin/../lib/gcc/riscv64-unknown-linux-musl/10.1.0/../../../../riscv64-unknown-linux-musl/lib/libc.a(__overflow.o)
 .bss           0x0000000200012eb0        0x0 /home/zbtrs/ospp/rt-thread/bsp/toolchain/riscv64-linux-musleabi_for_x86_64-pc-linux-gnu/bin/../lib/gcc/riscv64-unknown-linux-musl/10.1.0/../../../../riscv64-unknown-linux-musl/lib/libc.a(__stdio_close.o)
 .bss           0x0000000200012eb0        0x0 /home/zbtrs/ospp/rt-thread/bsp/toolchain/riscv64-linux-musleabi_for_x86_64-pc-linux-gnu/bin/../lib/gcc/riscv64-unknown-linux-musl/10.1.0/../../../../riscv64-unknown-linux-musl/lib/libc.a(__stdio_seek.o)
 .bss           0x0000000200012eb0        0x0 /home/zbtrs/ospp/rt-thread/bsp/toolchain/riscv64-linux-musleabi_for_x86_64-pc-linux-gnu/bin/../lib/gcc/riscv64-unknown-linux-musl/10.1.0/../../../../riscv64-unknown-linux-musl/lib/libc.a(__stdio_write.o)
 .bss           0x0000000200012eb0        0x0 /home/zbtrs/ospp/rt-thread/bsp/toolchain/riscv64-linux-musleabi_for_x86_64-pc-linux-gnu/bin/../lib/gcc/riscv64-unknown-linux-musl/10.1.0/../../../../riscv64-unknown-linux-musl/lib/libc.a(__stdout_write.o)
 .bss           0x0000000200012eb0        0x0 /home/zbtrs/ospp/rt-thread/bsp/toolchain/riscv64-linux-musleabi_for_x86_64-pc-linux-gnu/bin/../lib/gcc/riscv64-unknown-linux-musl/10.1.0/../../../../riscv64-unknown-linux-musl/lib/libc.a(__towrite.o)
 .bss           0x0000000200012eb0        0x0 /home/zbtrs/ospp/rt-thread/bsp/toolchain/riscv64-linux-musleabi_for_x86_64-pc-linux-gnu/bin/../lib/gcc/riscv64-unknown-linux-musl/10.1.0/../../../../riscv64-unknown-linux-musl/lib/libc.a(fputc.o)
 .bss           0x0000000200012eb0        0x0 /home/zbtrs/ospp/rt-thread/bsp/toolchain/riscv64-linux-musleabi_for_x86_64-pc-linux-gnu/bin/../lib/gcc/riscv64-unknown-linux-musl/10.1.0/../../../../riscv64-unknown-linux-musl/lib/libc.a(fputs.o)
 .bss           0x0000000200012eb0        0x0 /home/zbtrs/ospp/rt-thread/bsp/toolchain/riscv64-linux-musleabi_for_x86_64-pc-linux-gnu/bin/../lib/gcc/riscv64-unknown-linux-musl/10.1.0/../../../../riscv64-unknown-linux-musl/lib/libc.a(fwrite.o)
 .bss           0x0000000200012eb0        0x0 /home/zbtrs/ospp/rt-thread/bsp/toolchain/riscv64-linux-musleabi_for_x86_64-pc-linux-gnu/bin/../lib/gcc/riscv64-unknown-linux-musl/10.1.0/../../../../riscv64-unknown-linux-musl/lib/libc.a(ofl.o)
 .bss           0x0000000200012eb0        0x0 /home/zbtrs/ospp/rt-thread/bsp/toolchain/riscv64-linux-musleabi_for_x86_64-pc-linux-gnu/bin/../lib/gcc/riscv64-unknown-linux-musl/10.1.0/../../../../riscv64-unknown-linux-musl/lib/libc.a(putc.o)
 .bss           0x0000000200012eb0        0x0 /home/zbtrs/ospp/rt-thread/bsp/toolchain/riscv64-linux-musleabi_for_x86_64-pc-linux-gnu/bin/../lib/gcc/riscv64-unknown-linux-musl/10.1.0/../../../../riscv64-unknown-linux-musl/lib/libc.a(memchr.o)
 .bss           0x0000000200012eb0        0x0 /home/zbtrs/ospp/rt-thread/bsp/toolchain/riscv64-linux-musleabi_for_x86_64-pc-linux-gnu/bin/../lib/gcc/riscv64-unknown-linux-musl/10.1.0/../../../../riscv64-unknown-linux-musl/lib/libc.a(stpncpy.o)
 .bss           0x0000000200012eb0        0x0 /home/zbtrs/ospp/rt-thread/bsp/toolchain/riscv64-linux-musleabi_for_x86_64-pc-linux-gnu/bin/../lib/gcc/riscv64-unknown-linux-musl/10.1.0/../../../../riscv64-unknown-linux-musl/lib/libc.a(strchr.o)
 .bss           0x0000000200012eb0        0x0 /home/zbtrs/ospp/rt-thread/bsp/toolchain/riscv64-linux-musleabi_for_x86_64-pc-linux-gnu/bin/../lib/gcc/riscv64-unknown-linux-musl/10.1.0/../../../../riscv64-unknown-linux-musl/lib/libc.a(strchrnul.o)
 .bss           0x0000000200012eb0        0x0 /home/zbtrs/ospp/rt-thread/bsp/toolchain/riscv64-linux-musleabi_for_x86_64-pc-linux-gnu/bin/../lib/gcc/riscv64-unknown-linux-musl/10.1.0/../../../../riscv64-unknown-linux-musl/lib/libc.a(default_attr.o)
 .bss           0x0000000200012eb0        0x0 /home/zbtrs/ospp/rt-thread/bsp/toolchain/riscv64-linux-musleabi_for_x86_64-pc-linux-gnu/bin/../lib/gcc/riscv64-unknown-linux-musl/10.1.0/../../../../riscv64-unknown-linux-musl/lib/libc.a(clock_gettime.o)
 .bss           0x0000000200012eb0        0x0 /home/zbtrs/ospp/rt-thread/bsp/toolchain/riscv64-linux-musleabi_for_x86_64-pc-linux-gnu/bin/../lib/gcc/riscv64-unknown-linux-musl/10.1.0/../../../../riscv64-unknown-linux-musl/lib/libc.a(wcrtomb.o)
 .bss           0x0000000200012eb0        0x0 /home/zbtrs/ospp/rt-thread/bsp/toolchain/riscv64-linux-musleabi_for_x86_64-pc-linux-gnu/bin/../lib/gcc/riscv64-unknown-linux-musl/10.1.0/../../../../riscv64-unknown-linux-musl/lib/libc.a(__stdio_exit.o)
 .bss           0x0000000200012eb0        0x0 /home/zbtrs/ospp/rt-thread/bsp/toolchain/riscv64-linux-musleabi_for_x86_64-pc-linux-gnu/bin/../lib/gcc/riscv64-unknown-linux-musl/10.1.0/libgcc.a(addtf3.o)
 .bss           0x0000000200012eb0        0x0 /home/zbtrs/ospp/rt-thread/bsp/toolchain/riscv64-linux-musleabi_for_x86_64-pc-linux-gnu/bin/../lib/gcc/riscv64-unknown-linux-musl/10.1.0/libgcc.a(eqtf2.o)
 .bss           0x0000000200012eb0        0x0 /home/zbtrs/ospp/rt-thread/bsp/toolchain/riscv64-linux-musleabi_for_x86_64-pc-linux-gnu/bin/../lib/gcc/riscv64-unknown-linux-musl/10.1.0/libgcc.a(multf3.o)
 .bss           0x0000000200012eb0        0x0 /home/zbtrs/ospp/rt-thread/bsp/toolchain/riscv64-linux-musleabi_for_x86_64-pc-linux-gnu/bin/../lib/gcc/riscv64-unknown-linux-musl/10.1.0/libgcc.a(subtf3.o)
 .bss           0x0000000200012eb0        0x0 /home/zbtrs/ospp/rt-thread/bsp/toolchain/riscv64-linux-musleabi_for_x86_64-pc-linux-gnu/bin/../lib/gcc/riscv64-unknown-linux-musl/10.1.0/libgcc.a(fixtfsi.o)
 .bss           0x0000000200012eb0        0x0 /home/zbtrs/ospp/rt-thread/bsp/toolchain/riscv64-linux-musleabi_for_x86_64-pc-linux-gnu/bin/../lib/gcc/riscv64-unknown-linux-musl/10.1.0/libgcc.a(fixunstfsi.o)
 .bss           0x0000000200012eb0        0x0 /home/zbtrs/ospp/rt-thread/bsp/toolchain/riscv64-linux-musleabi_for_x86_64-pc-linux-gnu/bin/../lib/gcc/riscv64-unknown-linux-musl/10.1.0/libgcc.a(floatsitf.o)
 .bss           0x0000000200012eb0        0x0 /home/zbtrs/ospp/rt-thread/bsp/toolchain/riscv64-linux-musleabi_for_x86_64-pc-linux-gnu/bin/../lib/gcc/riscv64-unknown-linux-musl/10.1.0/libgcc.a(floatunsitf.o)
 .bss           0x0000000200012eb0        0x0 /home/zbtrs/ospp/rt-thread/bsp/toolchain/riscv64-linux-musleabi_for_x86_64-pc-linux-gnu/bin/../lib/gcc/riscv64-unknown-linux-musl/10.1.0/libgcc.a(extenddftf2.o)
 .bss           0x0000000200012eb0        0x0 /home/zbtrs/ospp/rt-thread/bsp/toolchain/riscv64-linux-musleabi_for_x86_64-pc-linux-gnu/bin/../lib/gcc/riscv64-unknown-linux-musl/10.1.0/libgcc.a(_clzsi2.o)
 .bss           0x0000000200012eb0        0x0 /home/zbtrs/ospp/rt-thread/bsp/toolchain/riscv64-linux-musleabi_for_x86_64-pc-linux-gnu/bin/../lib/gcc/riscv64-unknown-linux-musl/10.1.0/libgcc.a(_clz.o)
 .bss           0x0000000200012eb0        0x0 /home/zbtrs/ospp/rt-thread/bsp/toolchain/riscv64-linux-musleabi_for_x86_64-pc-linux-gnu/bin/../lib/gcc/riscv64-unknown-linux-musl/10.1.0/crtend.o
 .bss           0x0000000200012eb0        0x0 /home/zbtrs/ospp/rt-thread/bsp/toolchain/riscv64-linux-musleabi_for_x86_64-pc-linux-gnu/bin/../lib/gcc/riscv64-unknown-linux-musl/10.1.0/crtn.o
 *(COMMON)
 *(.stack)
                0x0000000200012eb0                __bss_end__ = .
                0x0000000200012eb0                _end = .
OUTPUT(conftest elf64-littleriscv)

.sbss.__hwcap   0x0000000200012eb0        0x8
 .sbss.__hwcap  0x0000000200012eb0        0x8 /home/zbtrs/ospp/rt-thread/bsp/toolchain/riscv64-linux-musleabi_for_x86_64-pc-linux-gnu/bin/../lib/gcc/riscv64-unknown-linux-musl/10.1.0/../../../../riscv64-unknown-linux-musl/lib/libc.a(libc.o)
                0x0000000200012eb0                __hwcap

.sbss.__progname
                0x0000000200012eb8        0x8
 .sbss.__progname
                0x0000000200012eb8        0x8 /home/zbtrs/ospp/rt-thread/bsp/toolchain/riscv64-linux-musleabi_for_x86_64-pc-linux-gnu/bin/../lib/gcc/riscv64-unknown-linux-musl/10.1.0/../../../../riscv64-unknown-linux-musl/lib/libc.a(libc.o)
                0x0000000200012eb8                __progname
                0x0000000200012eb8                program_invocation_short_name

.sbss.__progname_full
                0x0000000200012ec0        0x8
 .sbss.__progname_full
                0x0000000200012ec0        0x8 /home/zbtrs/ospp/rt-thread/bsp/toolchain/riscv64-linux-musleabi_for_x86_64-pc-linux-gnu/bin/../lib/gcc/riscv64-unknown-linux-musl/10.1.0/../../../../riscv64-unknown-linux-musl/lib/libc.a(libc.o)
                0x0000000200012ec0                program_invocation_name
                0x0000000200012ec0                __progname_full

.sbss.__sysinfo
                0x0000000200012ec8        0x8
 .sbss.__sysinfo
                0x0000000200012ec8        0x8 /home/zbtrs/ospp/rt-thread/bsp/toolchain/riscv64-linux-musleabi_for_x86_64-pc-linux-gnu/bin/../lib/gcc/riscv64-unknown-linux-musl/10.1.0/../../../../riscv64-unknown-linux-musl/lib/libc.a(libc.o)
                0x0000000200012ec8                __sysinfo

.sbss.cur.1     0x0000000200012ed0        0x8
 .sbss.cur.1    0x0000000200012ed0        0x8 /home/zbtrs/ospp/rt-thread/bsp/toolchain/riscv64-linux-musleabi_for_x86_64-pc-linux-gnu/bin/../lib/gcc/riscv64-unknown-linux-musl/10.1.0/../../../../riscv64-unknown-linux-musl/lib/libc.a(lite_malloc.o)

.sbss.end.2     0x0000000200012ed8        0x8
 .sbss.end.2    0x0000000200012ed8        0x8 /home/zbtrs/ospp/rt-thread/bsp/toolchain/riscv64-linux-musleabi_for_x86_64-pc-linux-gnu/bin/../lib/gcc/riscv64-unknown-linux-musl/10.1.0/../../../../riscv64-unknown-linux-musl/lib/libc.a(lite_malloc.o)

.sbss.lock.0    0x0000000200012ee0        0x4
 .sbss.lock.0   0x0000000200012ee0        0x4 /home/zbtrs/ospp/rt-thread/bsp/toolchain/riscv64-linux-musleabi_for_x86_64-pc-linux-gnu/bin/../lib/gcc/riscv64-unknown-linux-musl/10.1.0/../../../../riscv64-unknown-linux-musl/lib/libc.a(lite_malloc.o)

.sbss.__malloc_replaced
                0x0000000200012ee4        0x4
 .sbss.__malloc_replaced
                0x0000000200012ee4        0x4 /home/zbtrs/ospp/rt-thread/bsp/toolchain/riscv64-linux-musleabi_for_x86_64-pc-linux-gnu/bin/../lib/gcc/riscv64-unknown-linux-musl/10.1.0/../../../../riscv64-unknown-linux-musl/lib/libc.a(malloc.o)
                0x0000000200012ee4                __malloc_replaced

.sbss.end.1     0x0000000200012ee8        0x8
 .sbss.end.1    0x0000000200012ee8        0x8 /home/zbtrs/ospp/rt-thread/bsp/toolchain/riscv64-linux-musleabi_for_x86_64-pc-linux-gnu/bin/../lib/gcc/riscv64-unknown-linux-musl/10.1.0/../../../../riscv64-unknown-linux-musl/lib/libc.a(malloc.o)

.sbss.heap_lock.2
                0x0000000200012ef0        0x8
 .sbss.heap_lock.2
                0x0000000200012ef0        0x8 /home/zbtrs/ospp/rt-thread/bsp/toolchain/riscv64-linux-musleabi_for_x86_64-pc-linux-gnu/bin/../lib/gcc/riscv64-unknown-linux-musl/10.1.0/../../../../riscv64-unknown-linux-musl/lib/libc.a(malloc.o)

.sbss.seed      0x0000000200012ef8        0x8
 .sbss.seed     0x0000000200012ef8        0x8 /home/zbtrs/ospp/rt-thread/bsp/toolchain/riscv64-linux-musleabi_for_x86_64-pc-linux-gnu/bin/../lib/gcc/riscv64-unknown-linux-musl/10.1.0/../../../../riscv64-unknown-linux-musl/lib/libc.a(rand.o)

.sbss.buf       0x0000000200012f00        0x8
 .sbss.buf      0x0000000200012f00        0x8 /home/zbtrs/ospp/rt-thread/bsp/toolchain/riscv64-linux-musleabi_for_x86_64-pc-linux-gnu/bin/../lib/gcc/riscv64-unknown-linux-musl/10.1.0/../../../../riscv64-unknown-linux-musl/lib/libc.a(stderr.o)

.sbss.dummy     0x0000000200012f08        0x8
 .sbss.dummy    0x0000000200012f08        0x8 /home/zbtrs/ospp/rt-thread/bsp/toolchain/riscv64-linux-musleabi_for_x86_64-pc-linux-gnu/bin/../lib/gcc/riscv64-unknown-linux-musl/10.1.0/../../../../riscv64-unknown-linux-musl/lib/libc.a(pthread_create.o)
                0x0000000200012f08                __pthread_tsd_size

.sbss.dummy_file
                0x0000000200012f10       0x10
 .sbss.dummy_file
                0x0000000200012f10        0x8 /home/zbtrs/ospp/rt-thread/bsp/toolchain/riscv64-linux-musleabi_for_x86_64-pc-linux-gnu/bin/../lib/gcc/riscv64-unknown-linux-musl/10.1.0/../../../../riscv64-unknown-linux-musl/lib/libc.a(pthread_create.o)
                0x0000000200012f10                __stdin_used
 .sbss.dummy_file
                0x0000000200012f18        0x8 /home/zbtrs/ospp/rt-thread/bsp/toolchain/riscv64-linux-musleabi_for_x86_64-pc-linux-gnu/bin/../lib/gcc/riscv64-unknown-linux-musl/10.1.0/../../../../riscv64-unknown-linux-musl/lib/libc.a(__stdio_exit.o)

.sbss.dummy_tsd
                0x0000000200012f20        0x8
 .sbss.dummy_tsd
                0x0000000200012f20        0x8 /home/zbtrs/ospp/rt-thread/bsp/toolchain/riscv64-linux-musleabi_for_x86_64-pc-linux-gnu/bin/../lib/gcc/riscv64-unknown-linux-musl/10.1.0/../../../../riscv64-unknown-linux-musl/lib/libc.a(pthread_create.o)
                0x0000000200012f20                __pthread_tsd_main

.sbss.tl_lock_count
                0x0000000200012f28        0x4
 .sbss.tl_lock_count
                0x0000000200012f28        0x4 /home/zbtrs/ospp/rt-thread/bsp/toolchain/riscv64-linux-musleabi_for_x86_64-pc-linux-gnu/bin/../lib/gcc/riscv64-unknown-linux-musl/10.1.0/../../../../riscv64-unknown-linux-musl/lib/libc.a(pthread_create.o)

.sbss.tl_lock_waiters
                0x0000000200012f2c        0x4
 .sbss.tl_lock_waiters
                0x0000000200012f2c        0x4 /home/zbtrs/ospp/rt-thread/bsp/toolchain/riscv64-linux-musleabi_for_x86_64-pc-linux-gnu/bin/../lib/gcc/riscv64-unknown-linux-musl/10.1.0/../../../../riscv64-unknown-linux-musl/lib/libc.a(pthread_create.o)

.sbss.vmlock    0x0000000200012f30        0x8
 .sbss.vmlock   0x0000000200012f30        0x8 /home/zbtrs/ospp/rt-thread/bsp/toolchain/riscv64-linux-musleabi_for_x86_64-pc-linux-gnu/bin/../lib/gcc/riscv64-unknown-linux-musl/10.1.0/../../../../riscv64-unknown-linux-musl/lib/libc.a(vmlock.o)

.sbss.__environ
                0x0000000200012f38        0x8
 .sbss.__environ
                0x0000000200012f38        0x8 /home/zbtrs/ospp/rt-thread/bsp/toolchain/riscv64-linux-musleabi_for_x86_64-pc-linux-gnu/bin/../lib/gcc/riscv64-unknown-linux-musl/10.1.0/../../../../riscv64-unknown-linux-musl/lib/libc.a(__environ.o)
                0x0000000200012f38                _environ
                0x0000000200012f38                __environ
                0x0000000200012f38                environ
                0x0000000200012f38                ___environ

.sbss.__thread_list_lock
                0x0000000200012f40        0x4
 .sbss.__thread_list_lock
                0x0000000200012f40        0x4 /home/zbtrs/ospp/rt-thread/bsp/toolchain/riscv64-linux-musleabi_for_x86_64-pc-linux-gnu/bin/../lib/gcc/riscv64-unknown-linux-musl/10.1.0/../../../../riscv64-unknown-linux-musl/lib/libc.a(__init_tls.o)
                0x0000000200012f40                __thread_list_lock

.sbss.__stack_chk_guard
                0x0000000200012f48        0x8
 .sbss.__stack_chk_guard
                0x0000000200012f48        0x8 /home/zbtrs/ospp/rt-thread/bsp/toolchain/riscv64-linux-musleabi_for_x86_64-pc-linux-gnu/bin/../lib/gcc/riscv64-unknown-linux-musl/10.1.0/../../../../riscv64-unknown-linux-musl/lib/libc.a(__stack_chk_fail.o)
                0x0000000200012f48                __stack_chk_guard

.sbss.brk.1     0x0000000200012f50        0x8
 .sbss.brk.1    0x0000000200012f50        0x8 /home/zbtrs/ospp/rt-thread/bsp/toolchain/riscv64-linux-musleabi_for_x86_64-pc-linux-gnu/bin/../lib/gcc/riscv64-unknown-linux-musl/10.1.0/../../../../riscv64-unknown-linux-musl/lib/libc.a(expand_heap.o)

.sbss.mmap_step.0
                0x0000000200012f58        0x4
 .sbss.mmap_step.0
                0x0000000200012f58        0x4 /home/zbtrs/ospp/rt-thread/bsp/toolchain/riscv64-linux-musleabi_for_x86_64-pc-linux-gnu/bin/../lib/gcc/riscv64-unknown-linux-musl/10.1.0/../../../../riscv64-unknown-linux-musl/lib/libc.a(expand_heap.o)

.sbss.__optpos  0x0000000200012f5c        0x4
 .sbss.__optpos
                0x0000000200012f5c        0x4 /home/zbtrs/ospp/rt-thread/bsp/toolchain/riscv64-linux-musleabi_for_x86_64-pc-linux-gnu/bin/../lib/gcc/riscv64-unknown-linux-musl/10.1.0/../../../../riscv64-unknown-linux-musl/lib/libc.a(getopt.o)
                0x0000000200012f5c                __optpos

.sbss.__optreset
                0x0000000200012f60        0x4
 .sbss.__optreset
                0x0000000200012f60        0x4 /home/zbtrs/ospp/rt-thread/bsp/toolchain/riscv64-linux-musleabi_for_x86_64-pc-linux-gnu/bin/../lib/gcc/riscv64-unknown-linux-musl/10.1.0/../../../../riscv64-unknown-linux-musl/lib/libc.a(getopt.o)
                0x0000000200012f60                __optreset
                0x0000000200012f60                optreset

.sbss.optarg    0x0000000200012f68        0x8
 .sbss.optarg   0x0000000200012f68        0x8 /home/zbtrs/ospp/rt-thread/bsp/toolchain/riscv64-linux-musleabi_for_x86_64-pc-linux-gnu/bin/../lib/gcc/riscv64-unknown-linux-musl/10.1.0/../../../../riscv64-unknown-linux-musl/lib/libc.a(getopt.o)
                0x0000000200012f68                optarg

.sbss.optopt    0x0000000200012f70        0x4
 .sbss.optopt   0x0000000200012f70        0x4 /home/zbtrs/ospp/rt-thread/bsp/toolchain/riscv64-linux-musleabi_for_x86_64-pc-linux-gnu/bin/../lib/gcc/riscv64-unknown-linux-musl/10.1.0/../../../../riscv64-unknown-linux-musl/lib/libc.a(getopt.o)
                0x0000000200012f70                optopt

.sbss.ofl_head  0x0000000200012f78        0x8
 .sbss.ofl_head
                0x0000000200012f78        0x8 /home/zbtrs/ospp/rt-thread/bsp/toolchain/riscv64-linux-musleabi_for_x86_64-pc-linux-gnu/bin/../lib/gcc/riscv64-unknown-linux-musl/10.1.0/../../../../riscv64-unknown-linux-musl/lib/libc.a(ofl.o)

.sbss.ofl_lock  0x0000000200012f80        0x4
 .sbss.ofl_lock
                0x0000000200012f80        0x4 /home/zbtrs/ospp/rt-thread/bsp/toolchain/riscv64-linux-musleabi_for_x86_64-pc-linux-gnu/bin/../lib/gcc/riscv64-unknown-linux-musl/10.1.0/../../../../riscv64-unknown-linux-musl/lib/libc.a(ofl.o)

.comment        0x0000000000000000       0x12
 .comment       0x0000000000000000       0x12 /home/zbtrs/ospp/rt-thread/bsp/toolchain/riscv64-linux-musleabi_for_x86_64-pc-linux-gnu/bin/../lib/gcc/riscv64-unknown-linux-musl/10.1.0/../../../../riscv64-unknown-linux-musl/lib/crt1.o
                                         0x13 (size before relaxing)
 .comment       0x0000000000000012       0x13 /home/zbtrs/ospp/rt-thread/bsp/toolchain/riscv64-linux-musleabi_for_x86_64-pc-linux-gnu/bin/../lib/gcc/riscv64-unknown-linux-musl/10.1.0/crtbeginT.o
 .comment       0x0000000000000012       0x13 /home/zbtrs/ospp/userapps/sdk/rt-thread/lib/risc-v/rv64gc//librtthread.a(rt_channel.o)
 .comment       0x0000000000000012       0x13 /home/zbtrs/ospp/userapps/sdk/rt-thread/lib/risc-v/rv64gc//librtthread.a(rt_completion.o)
 .comment       0x0000000000000012       0x13 /home/zbtrs/ospp/userapps/sdk/rt-thread/lib/risc-v/rv64gc//librtthread.a(rt_device.o)
 .comment       0x0000000000000012       0x13 /home/zbtrs/ospp/userapps/sdk/rt-thread/lib/risc-v/rv64gc//librtthread.a(rt_ipc.o)
 .comment       0x0000000000000012       0x13 /home/zbtrs/ospp/userapps/sdk/rt-thread/lib/risc-v/rv64gc//librtthread.a(rt_net.o)
 .comment       0x0000000000000012       0x13 /home/zbtrs/ospp/userapps/sdk/rt-thread/lib/risc-v/rv64gc//librtthread.a(rt_syscall.o)
 .comment       0x0000000000000012       0x13 /home/zbtrs/ospp/userapps/sdk/rt-thread/lib/risc-v/rv64gc//librtthread.a(rt_thread.o)
 .comment       0x0000000000000012       0x13 /home/zbtrs/ospp/userapps/sdk/rt-thread/lib/risc-v/rv64gc//librtthread.a(rt_timer.o)
 .comment       0x0000000000000012       0x13 /home/zbtrs/ospp/userapps/sdk/rt-thread/lib/risc-v/rv64gc//librtthread.a(stub.o)
 .comment       0x0000000000000012       0x13 /tmp/cc2olldp.o
 .comment       0x0000000000000012       0x13 /home/zbtrs/ospp/rt-thread/bsp/toolchain/riscv64-linux-musleabi_for_x86_64-pc-linux-gnu/bin/../lib/gcc/riscv64-unknown-linux-musl/10.1.0/../../../../riscv64-unknown-linux-musl/lib/libc.a(__libc_start_main.o)
 .comment       0x0000000000000012       0x13 /home/zbtrs/ospp/rt-thread/bsp/toolchain/riscv64-linux-musleabi_for_x86_64-pc-linux-gnu/bin/../lib/gcc/riscv64-unknown-linux-musl/10.1.0/../../../../riscv64-unknown-linux-musl/lib/libc.a(__errno_location.o)
 .comment       0x0000000000000012       0x13 /home/zbtrs/ospp/rt-thread/bsp/toolchain/riscv64-linux-musleabi_for_x86_64-pc-linux-gnu/bin/../lib/gcc/riscv64-unknown-linux-musl/10.1.0/../../../../riscv64-unknown-linux-musl/lib/libc.a(strerror.o)
 .comment       0x0000000000000012       0x13 /home/zbtrs/ospp/rt-thread/bsp/toolchain/riscv64-linux-musleabi_for_x86_64-pc-linux-gnu/bin/../lib/gcc/riscv64-unknown-linux-musl/10.1.0/../../../../riscv64-unknown-linux-musl/lib/libc.a(exit.o)
 .comment       0x0000000000000012       0x13 /home/zbtrs/ospp/rt-thread/bsp/toolchain/riscv64-linux-musleabi_for_x86_64-pc-linux-gnu/bin/../lib/gcc/riscv64-unknown-linux-musl/10.1.0/../../../../riscv64-unknown-linux-musl/lib/libc.a(fcntl.o)
 .comment       0x0000000000000012       0x13 /home/zbtrs/ospp/rt-thread/bsp/toolchain/riscv64-linux-musleabi_for_x86_64-pc-linux-gnu/bin/../lib/gcc/riscv64-unknown-linux-musl/10.1.0/../../../../riscv64-unknown-linux-musl/lib/libc.a(libc.o)
 .comment       0x0000000000000012       0x13 /home/zbtrs/ospp/rt-thread/bsp/toolchain/riscv64-linux-musleabi_for_x86_64-pc-linux-gnu/bin/../lib/gcc/riscv64-unknown-linux-musl/10.1.0/../../../../riscv64-unknown-linux-musl/lib/libc.a(syscall.o)
 .comment       0x0000000000000012       0x13 /home/zbtrs/ospp/rt-thread/bsp/toolchain/riscv64-linux-musleabi_for_x86_64-pc-linux-gnu/bin/../lib/gcc/riscv64-unknown-linux-musl/10.1.0/../../../../riscv64-unknown-linux-musl/lib/libc.a(syscall_ret.o)
 .comment       0x0000000000000012       0x13 /home/zbtrs/ospp/rt-thread/bsp/toolchain/riscv64-linux-musleabi_for_x86_64-pc-linux-gnu/bin/../lib/gcc/riscv64-unknown-linux-musl/10.1.0/../../../../riscv64-unknown-linux-musl/lib/libc.a(__lctrans.o)
 .comment       0x0000000000000012       0x13 /home/zbtrs/ospp/rt-thread/bsp/toolchain/riscv64-linux-musleabi_for_x86_64-pc-linux-gnu/bin/../lib/gcc/riscv64-unknown-linux-musl/10.1.0/../../../../riscv64-unknown-linux-musl/lib/libc.a(lite_malloc.o)
 .comment       0x0000000000000012       0x13 /home/zbtrs/ospp/rt-thread/bsp/toolchain/riscv64-linux-musleabi_for_x86_64-pc-linux-gnu/bin/../lib/gcc/riscv64-unknown-linux-musl/10.1.0/../../../../riscv64-unknown-linux-musl/lib/libc.a(malloc.o)
 .comment       0x0000000000000012       0x13 /home/zbtrs/ospp/rt-thread/bsp/toolchain/riscv64-linux-musleabi_for_x86_64-pc-linux-gnu/bin/../lib/gcc/riscv64-unknown-linux-musl/10.1.0/../../../../riscv64-unknown-linux-musl/lib/libc.a(getopt_long.o)
 .comment       0x0000000000000012       0x13 /home/zbtrs/ospp/rt-thread/bsp/toolchain/riscv64-linux-musleabi_for_x86_64-pc-linux-gnu/bin/../lib/gcc/riscv64-unknown-linux-musl/10.1.0/../../../../riscv64-unknown-linux-musl/lib/libc.a(madvise.o)
 .comment       0x0000000000000012       0x13 /home/zbtrs/ospp/rt-thread/bsp/toolchain/riscv64-linux-musleabi_for_x86_64-pc-linux-gnu/bin/../lib/gcc/riscv64-unknown-linux-musl/10.1.0/../../../../riscv64-unknown-linux-musl/lib/libc.a(mmap.o)
 .comment       0x0000000000000012       0x13 /home/zbtrs/ospp/rt-thread/bsp/toolchain/riscv64-linux-musleabi_for_x86_64-pc-linux-gnu/bin/../lib/gcc/riscv64-unknown-linux-musl/10.1.0/../../../../riscv64-unknown-linux-musl/lib/libc.a(mremap.o)
 .comment       0x0000000000000012       0x13 /home/zbtrs/ospp/rt-thread/bsp/toolchain/riscv64-linux-musleabi_for_x86_64-pc-linux-gnu/bin/../lib/gcc/riscv64-unknown-linux-musl/10.1.0/../../../../riscv64-unknown-linux-musl/lib/libc.a(munmap.o)
 .comment       0x0000000000000012       0x13 /home/zbtrs/ospp/rt-thread/bsp/toolchain/riscv64-linux-musleabi_for_x86_64-pc-linux-gnu/bin/../lib/gcc/riscv64-unknown-linux-musl/10.1.0/../../../../riscv64-unknown-linux-musl/lib/libc.a(mblen.o)
 .comment       0x0000000000000012       0x13 /home/zbtrs/ospp/rt-thread/bsp/toolchain/riscv64-linux-musleabi_for_x86_64-pc-linux-gnu/bin/../lib/gcc/riscv64-unknown-linux-musl/10.1.0/../../../../riscv64-unknown-linux-musl/lib/libc.a(mbtowc.o)
 .comment       0x0000000000000012       0x13 /home/zbtrs/ospp/rt-thread/bsp/toolchain/riscv64-linux-musleabi_for_x86_64-pc-linux-gnu/bin/../lib/gcc/riscv64-unknown-linux-musl/10.1.0/../../../../riscv64-unknown-linux-musl/lib/libc.a(accept.o)
 .comment       0x0000000000000012       0x13 /home/zbtrs/ospp/rt-thread/bsp/toolchain/riscv64-linux-musleabi_for_x86_64-pc-linux-gnu/bin/../lib/gcc/riscv64-unknown-linux-musl/10.1.0/../../../../riscv64-unknown-linux-musl/lib/libc.a(bind.o)
 .comment       0x0000000000000012       0x13 /home/zbtrs/ospp/rt-thread/bsp/toolchain/riscv64-linux-musleabi_for_x86_64-pc-linux-gnu/bin/../lib/gcc/riscv64-unknown-linux-musl/10.1.0/../../../../riscv64-unknown-linux-musl/lib/libc.a(connect.o)
 .comment       0x0000000000000012       0x13 /home/zbtrs/ospp/rt-thread/bsp/toolchain/riscv64-linux-musleabi_for_x86_64-pc-linux-gnu/bin/../lib/gcc/riscv64-unknown-linux-musl/10.1.0/../../../../riscv64-unknown-linux-musl/lib/libc.a(htonl.o)
 .comment       0x0000000000000012       0x13 /home/zbtrs/ospp/rt-thread/bsp/toolchain/riscv64-linux-musleabi_for_x86_64-pc-linux-gnu/bin/../lib/gcc/riscv64-unknown-linux-musl/10.1.0/../../../../riscv64-unknown-linux-musl/lib/libc.a(htons.o)
 .comment       0x0000000000000012       0x13 /home/zbtrs/ospp/rt-thread/bsp/toolchain/riscv64-linux-musleabi_for_x86_64-pc-linux-gnu/bin/../lib/gcc/riscv64-unknown-linux-musl/10.1.0/../../../../riscv64-unknown-linux-musl/lib/libc.a(listen.o)
 .comment       0x0000000000000012       0x13 /home/zbtrs/ospp/rt-thread/bsp/toolchain/riscv64-linux-musleabi_for_x86_64-pc-linux-gnu/bin/../lib/gcc/riscv64-unknown-linux-musl/10.1.0/../../../../riscv64-unknown-linux-musl/lib/libc.a(setsockopt.o)
 .comment       0x0000000000000012       0x13 /home/zbtrs/ospp/rt-thread/bsp/toolchain/riscv64-linux-musleabi_for_x86_64-pc-linux-gnu/bin/../lib/gcc/riscv64-unknown-linux-musl/10.1.0/../../../../riscv64-unknown-linux-musl/lib/libc.a(socket.o)
 .comment       0x0000000000000012       0x13 /home/zbtrs/ospp/rt-thread/bsp/toolchain/riscv64-linux-musleabi_for_x86_64-pc-linux-gnu/bin/../lib/gcc/riscv64-unknown-linux-musl/10.1.0/../../../../riscv64-unknown-linux-musl/lib/libc.a(rand.o)
 .comment       0x0000000000000012       0x13 /home/zbtrs/ospp/rt-thread/bsp/toolchain/riscv64-linux-musleabi_for_x86_64-pc-linux-gnu/bin/../lib/gcc/riscv64-unknown-linux-musl/10.1.0/../../../../riscv64-unknown-linux-musl/lib/libc.a(select.o)
 .comment       0x0000000000000012       0x13 /home/zbtrs/ospp/rt-thread/bsp/toolchain/riscv64-linux-musleabi_for_x86_64-pc-linux-gnu/bin/../lib/gcc/riscv64-unknown-linux-musl/10.1.0/../../../../riscv64-unknown-linux-musl/lib/libc.a(perror.o)
 .comment       0x0000000000000012       0x13 /home/zbtrs/ospp/rt-thread/bsp/toolchain/riscv64-linux-musleabi_for_x86_64-pc-linux-gnu/bin/../lib/gcc/riscv64-unknown-linux-musl/10.1.0/../../../../riscv64-unknown-linux-musl/lib/libc.a(printf.o)
 .comment       0x0000000000000012       0x13 /home/zbtrs/ospp/rt-thread/bsp/toolchain/riscv64-linux-musleabi_for_x86_64-pc-linux-gnu/bin/../lib/gcc/riscv64-unknown-linux-musl/10.1.0/../../../../riscv64-unknown-linux-musl/lib/libc.a(puts.o)
 .comment       0x0000000000000012       0x13 /home/zbtrs/ospp/rt-thread/bsp/toolchain/riscv64-linux-musleabi_for_x86_64-pc-linux-gnu/bin/../lib/gcc/riscv64-unknown-linux-musl/10.1.0/../../../../riscv64-unknown-linux-musl/lib/libc.a(stderr.o)
 .comment       0x0000000000000012       0x13 /home/zbtrs/ospp/rt-thread/bsp/toolchain/riscv64-linux-musleabi_for_x86_64-pc-linux-gnu/bin/../lib/gcc/riscv64-unknown-linux-musl/10.1.0/../../../../riscv64-unknown-linux-musl/lib/libc.a(stdout.o)
 .comment       0x0000000000000012       0x13 /home/zbtrs/ospp/rt-thread/bsp/toolchain/riscv64-linux-musleabi_for_x86_64-pc-linux-gnu/bin/../lib/gcc/riscv64-unknown-linux-musl/10.1.0/../../../../riscv64-unknown-linux-musl/lib/libc.a(vfprintf.o)
 .comment       0x0000000000000012       0x13 /home/zbtrs/ospp/rt-thread/bsp/toolchain/riscv64-linux-musleabi_for_x86_64-pc-linux-gnu/bin/../lib/gcc/riscv64-unknown-linux-musl/10.1.0/../../../../riscv64-unknown-linux-musl/lib/libc.a(vsnprintf.o)
 .comment       0x0000000000000012       0x13 /home/zbtrs/ospp/rt-thread/bsp/toolchain/riscv64-linux-musleabi_for_x86_64-pc-linux-gnu/bin/../lib/gcc/riscv64-unknown-linux-musl/10.1.0/../../../../riscv64-unknown-linux-musl/lib/libc.a(vsprintf.o)
 .comment       0x0000000000000012       0x13 /home/zbtrs/ospp/rt-thread/bsp/toolchain/riscv64-linux-musleabi_for_x86_64-pc-linux-gnu/bin/../lib/gcc/riscv64-unknown-linux-musl/10.1.0/../../../../riscv64-unknown-linux-musl/lib/libc.a(memcmp.o)
 .comment       0x0000000000000012       0x13 /home/zbtrs/ospp/rt-thread/bsp/toolchain/riscv64-linux-musleabi_for_x86_64-pc-linux-gnu/bin/../lib/gcc/riscv64-unknown-linux-musl/10.1.0/../../../../riscv64-unknown-linux-musl/lib/libc.a(memcpy.o)
 .comment       0x0000000000000012       0x13 /home/zbtrs/ospp/rt-thread/bsp/toolchain/riscv64-linux-musleabi_for_x86_64-pc-linux-gnu/bin/../lib/gcc/riscv64-unknown-linux-musl/10.1.0/../../../../riscv64-unknown-linux-musl/lib/libc.a(memmove.o)
 .comment       0x0000000000000012       0x13 /home/zbtrs/ospp/rt-thread/bsp/toolchain/riscv64-linux-musleabi_for_x86_64-pc-linux-gnu/bin/../lib/gcc/riscv64-unknown-linux-musl/10.1.0/../../../../riscv64-unknown-linux-musl/lib/libc.a(memset.o)
 .comment       0x0000000000000012       0x13 /home/zbtrs/ospp/rt-thread/bsp/toolchain/riscv64-linux-musleabi_for_x86_64-pc-linux-gnu/bin/../lib/gcc/riscv64-unknown-linux-musl/10.1.0/../../../../riscv64-unknown-linux-musl/lib/libc.a(strcasecmp.o)
 .comment       0x0000000000000012       0x13 /home/zbtrs/ospp/rt-thread/bsp/toolchain/riscv64-linux-musleabi_for_x86_64-pc-linux-gnu/bin/../lib/gcc/riscv64-unknown-linux-musl/10.1.0/../../../../riscv64-unknown-linux-musl/lib/libc.a(strcmp.o)
 .comment       0x0000000000000012       0x13 /home/zbtrs/ospp/rt-thread/bsp/toolchain/riscv64-linux-musleabi_for_x86_64-pc-linux-gnu/bin/../lib/gcc/riscv64-unknown-linux-musl/10.1.0/../../../../riscv64-unknown-linux-musl/lib/libc.a(strdup.o)
 .comment       0x0000000000000012       0x13 /home/zbtrs/ospp/rt-thread/bsp/toolchain/riscv64-linux-musleabi_for_x86_64-pc-linux-gnu/bin/../lib/gcc/riscv64-unknown-linux-musl/10.1.0/../../../../riscv64-unknown-linux-musl/lib/libc.a(strlen.o)
 .comment       0x0000000000000012       0x13 /home/zbtrs/ospp/rt-thread/bsp/toolchain/riscv64-linux-musleabi_for_x86_64-pc-linux-gnu/bin/../lib/gcc/riscv64-unknown-linux-musl/10.1.0/../../../../riscv64-unknown-linux-musl/lib/libc.a(strncmp.o)
 .comment       0x0000000000000012       0x13 /home/zbtrs/ospp/rt-thread/bsp/toolchain/riscv64-linux-musleabi_for_x86_64-pc-linux-gnu/bin/../lib/gcc/riscv64-unknown-linux-musl/10.1.0/../../../../riscv64-unknown-linux-musl/lib/libc.a(strncpy.o)
 .comment       0x0000000000000012       0x13 /home/zbtrs/ospp/rt-thread/bsp/toolchain/riscv64-linux-musleabi_for_x86_64-pc-linux-gnu/bin/../lib/gcc/riscv64-unknown-linux-musl/10.1.0/../../../../riscv64-unknown-linux-musl/lib/libc.a(strnlen.o)
 .comment       0x0000000000000012       0x13 /home/zbtrs/ospp/rt-thread/bsp/toolchain/riscv64-linux-musleabi_for_x86_64-pc-linux-gnu/bin/../lib/gcc/riscv64-unknown-linux-musl/10.1.0/../../../../riscv64-unknown-linux-musl/lib/libc.a(strstr.o)
 .comment       0x0000000000000012       0x13 /home/zbtrs/ospp/rt-thread/bsp/toolchain/riscv64-linux-musleabi_for_x86_64-pc-linux-gnu/bin/../lib/gcc/riscv64-unknown-linux-musl/10.1.0/../../../../riscv64-unknown-linux-musl/lib/libc.a(__lock.o)
 .comment       0x0000000000000012       0x13 /home/zbtrs/ospp/rt-thread/bsp/toolchain/riscv64-linux-musleabi_for_x86_64-pc-linux-gnu/bin/../lib/gcc/riscv64-unknown-linux-musl/10.1.0/../../../../riscv64-unknown-linux-musl/lib/libc.a(__syscall_cp.o)
 .comment       0x0000000000000012       0x13 /home/zbtrs/ospp/rt-thread/bsp/toolchain/riscv64-linux-musleabi_for_x86_64-pc-linux-gnu/bin/../lib/gcc/riscv64-unknown-linux-musl/10.1.0/../../../../riscv64-unknown-linux-musl/lib/libc.a(__wait.o)
 .comment       0x0000000000000012       0x13 /home/zbtrs/ospp/rt-thread/bsp/toolchain/riscv64-linux-musleabi_for_x86_64-pc-linux-gnu/bin/../lib/gcc/riscv64-unknown-linux-musl/10.1.0/../../../../riscv64-unknown-linux-musl/lib/libc.a(pthread_create.o)
 .comment       0x0000000000000012       0x13 /home/zbtrs/ospp/rt-thread/bsp/toolchain/riscv64-linux-musleabi_for_x86_64-pc-linux-gnu/bin/../lib/gcc/riscv64-unknown-linux-musl/10.1.0/../../../../riscv64-unknown-linux-musl/lib/libc.a(vmlock.o)
 .comment       0x0000000000000012       0x13 /home/zbtrs/ospp/rt-thread/bsp/toolchain/riscv64-linux-musleabi_for_x86_64-pc-linux-gnu/bin/../lib/gcc/riscv64-unknown-linux-musl/10.1.0/../../../../riscv64-unknown-linux-musl/lib/libc.a(time.o)
 .comment       0x0000000000000012       0x13 /home/zbtrs/ospp/rt-thread/bsp/toolchain/riscv64-linux-musleabi_for_x86_64-pc-linux-gnu/bin/../lib/gcc/riscv64-unknown-linux-musl/10.1.0/../../../../riscv64-unknown-linux-musl/lib/libc.a(close.o)
 .comment       0x0000000000000012       0x13 /home/zbtrs/ospp/rt-thread/bsp/toolchain/riscv64-linux-musleabi_for_x86_64-pc-linux-gnu/bin/../lib/gcc/riscv64-unknown-linux-musl/10.1.0/../../../../riscv64-unknown-linux-musl/lib/libc.a(tolower.o)
 .comment       0x0000000000000012       0x13 /home/zbtrs/ospp/rt-thread/bsp/toolchain/riscv64-linux-musleabi_for_x86_64-pc-linux-gnu/bin/../lib/gcc/riscv64-unknown-linux-musl/10.1.0/../../../../riscv64-unknown-linux-musl/lib/libc.a(__environ.o)
 .comment       0x0000000000000012       0x13 /home/zbtrs/ospp/rt-thread/bsp/toolchain/riscv64-linux-musleabi_for_x86_64-pc-linux-gnu/bin/../lib/gcc/riscv64-unknown-linux-musl/10.1.0/../../../../riscv64-unknown-linux-musl/lib/libc.a(__init_tls.o)
 .comment       0x0000000000000012       0x13 /home/zbtrs/ospp/rt-thread/bsp/toolchain/riscv64-linux-musleabi_for_x86_64-pc-linux-gnu/bin/../lib/gcc/riscv64-unknown-linux-musl/10.1.0/../../../../riscv64-unknown-linux-musl/lib/libc.a(__stack_chk_fail.o)
 .comment       0x0000000000000012       0x13 /home/zbtrs/ospp/rt-thread/bsp/toolchain/riscv64-linux-musleabi_for_x86_64-pc-linux-gnu/bin/../lib/gcc/riscv64-unknown-linux-musl/10.1.0/../../../../riscv64-unknown-linux-musl/lib/libc.a(_Exit.o)
 .comment       0x0000000000000012       0x13 /home/zbtrs/ospp/rt-thread/bsp/toolchain/riscv64-linux-musleabi_for_x86_64-pc-linux-gnu/bin/../lib/gcc/riscv64-unknown-linux-musl/10.1.0/../../../../riscv64-unknown-linux-musl/lib/libc.a(expand_heap.o)
 .comment       0x0000000000000012       0x13 /home/zbtrs/ospp/rt-thread/bsp/toolchain/riscv64-linux-musleabi_for_x86_64-pc-linux-gnu/bin/../lib/gcc/riscv64-unknown-linux-musl/10.1.0/../../../../riscv64-unknown-linux-musl/lib/libc.a(__fpclassifyl.o)
 .comment       0x0000000000000012       0x13 /home/zbtrs/ospp/rt-thread/bsp/toolchain/riscv64-linux-musleabi_for_x86_64-pc-linux-gnu/bin/../lib/gcc/riscv64-unknown-linux-musl/10.1.0/../../../../riscv64-unknown-linux-musl/lib/libc.a(__signbitl.o)
 .comment       0x0000000000000012       0x13 /home/zbtrs/ospp/rt-thread/bsp/toolchain/riscv64-linux-musleabi_for_x86_64-pc-linux-gnu/bin/../lib/gcc/riscv64-unknown-linux-musl/10.1.0/../../../../riscv64-unknown-linux-musl/lib/libc.a(frexpl.o)
 .comment       0x0000000000000012       0x13 /home/zbtrs/ospp/rt-thread/bsp/toolchain/riscv64-linux-musleabi_for_x86_64-pc-linux-gnu/bin/../lib/gcc/riscv64-unknown-linux-musl/10.1.0/../../../../riscv64-unknown-linux-musl/lib/libc.a(getopt.o)
 .comment       0x0000000000000012       0x13 /home/zbtrs/ospp/rt-thread/bsp/toolchain/riscv64-linux-musleabi_for_x86_64-pc-linux-gnu/bin/../lib/gcc/riscv64-unknown-linux-musl/10.1.0/../../../../riscv64-unknown-linux-musl/lib/libc.a(mprotect.o)
 .comment       0x0000000000000012       0x13 /home/zbtrs/ospp/rt-thread/bsp/toolchain/riscv64-linux-musleabi_for_x86_64-pc-linux-gnu/bin/../lib/gcc/riscv64-unknown-linux-musl/10.1.0/../../../../riscv64-unknown-linux-musl/lib/libc.a(internal.o)
 .comment       0x0000000000000012       0x13 /home/zbtrs/ospp/rt-thread/bsp/toolchain/riscv64-linux-musleabi_for_x86_64-pc-linux-gnu/bin/../lib/gcc/riscv64-unknown-linux-musl/10.1.0/../../../../riscv64-unknown-linux-musl/lib/libc.a(wctomb.o)
 .comment       0x0000000000000012       0x13 /home/zbtrs/ospp/rt-thread/bsp/toolchain/riscv64-linux-musleabi_for_x86_64-pc-linux-gnu/bin/../lib/gcc/riscv64-unknown-linux-musl/10.1.0/../../../../riscv64-unknown-linux-musl/lib/libc.a(block.o)
 .comment       0x0000000000000012       0x13 /home/zbtrs/ospp/rt-thread/bsp/toolchain/riscv64-linux-musleabi_for_x86_64-pc-linux-gnu/bin/../lib/gcc/riscv64-unknown-linux-musl/10.1.0/../../../../riscv64-unknown-linux-musl/lib/libc.a(__lockfile.o)
 .comment       0x0000000000000012       0x13 /home/zbtrs/ospp/rt-thread/bsp/toolchain/riscv64-linux-musleabi_for_x86_64-pc-linux-gnu/bin/../lib/gcc/riscv64-unknown-linux-musl/10.1.0/../../../../riscv64-unknown-linux-musl/lib/libc.a(__overflow.o)
 .comment       0x0000000000000012       0x13 /home/zbtrs/ospp/rt-thread/bsp/toolchain/riscv64-linux-musleabi_for_x86_64-pc-linux-gnu/bin/../lib/gcc/riscv64-unknown-linux-musl/10.1.0/../../../../riscv64-unknown-linux-musl/lib/libc.a(__stdio_close.o)
 .comment       0x0000000000000012       0x13 /home/zbtrs/ospp/rt-thread/bsp/toolchain/riscv64-linux-musleabi_for_x86_64-pc-linux-gnu/bin/../lib/gcc/riscv64-unknown-linux-musl/10.1.0/../../../../riscv64-unknown-linux-musl/lib/libc.a(__stdio_seek.o)
 .comment       0x0000000000000012       0x13 /home/zbtrs/ospp/rt-thread/bsp/toolchain/riscv64-linux-musleabi_for_x86_64-pc-linux-gnu/bin/../lib/gcc/riscv64-unknown-linux-musl/10.1.0/../../../../riscv64-unknown-linux-musl/lib/libc.a(__stdio_write.o)
 .comment       0x0000000000000012       0x13 /home/zbtrs/ospp/rt-thread/bsp/toolchain/riscv64-linux-musleabi_for_x86_64-pc-linux-gnu/bin/../lib/gcc/riscv64-unknown-linux-musl/10.1.0/../../../../riscv64-unknown-linux-musl/lib/libc.a(__stdout_write.o)
 .comment       0x0000000000000012       0x13 /home/zbtrs/ospp/rt-thread/bsp/toolchain/riscv64-linux-musleabi_for_x86_64-pc-linux-gnu/bin/../lib/gcc/riscv64-unknown-linux-musl/10.1.0/../../../../riscv64-unknown-linux-musl/lib/libc.a(__towrite.o)
 .comment       0x0000000000000012       0x13 /home/zbtrs/ospp/rt-thread/bsp/toolchain/riscv64-linux-musleabi_for_x86_64-pc-linux-gnu/bin/../lib/gcc/riscv64-unknown-linux-musl/10.1.0/../../../../riscv64-unknown-linux-musl/lib/libc.a(fputc.o)
 .comment       0x0000000000000012       0x13 /home/zbtrs/ospp/rt-thread/bsp/toolchain/riscv64-linux-musleabi_for_x86_64-pc-linux-gnu/bin/../lib/gcc/riscv64-unknown-linux-musl/10.1.0/../../../../riscv64-unknown-linux-musl/lib/libc.a(fputs.o)
 .comment       0x0000000000000012       0x13 /home/zbtrs/ospp/rt-thread/bsp/toolchain/riscv64-linux-musleabi_for_x86_64-pc-linux-gnu/bin/../lib/gcc/riscv64-unknown-linux-musl/10.1.0/../../../../riscv64-unknown-linux-musl/lib/libc.a(fwrite.o)
 .comment       0x0000000000000012       0x13 /home/zbtrs/ospp/rt-thread/bsp/toolchain/riscv64-linux-musleabi_for_x86_64-pc-linux-gnu/bin/../lib/gcc/riscv64-unknown-linux-musl/10.1.0/../../../../riscv64-unknown-linux-musl/lib/libc.a(ofl.o)
 .comment       0x0000000000000012       0x13 /home/zbtrs/ospp/rt-thread/bsp/toolchain/riscv64-linux-musleabi_for_x86_64-pc-linux-gnu/bin/../lib/gcc/riscv64-unknown-linux-musl/10.1.0/../../../../riscv64-unknown-linux-musl/lib/libc.a(putc.o)
 .comment       0x0000000000000012       0x13 /home/zbtrs/ospp/rt-thread/bsp/toolchain/riscv64-linux-musleabi_for_x86_64-pc-linux-gnu/bin/../lib/gcc/riscv64-unknown-linux-musl/10.1.0/../../../../riscv64-unknown-linux-musl/lib/libc.a(memchr.o)
 .comment       0x0000000000000012       0x13 /home/zbtrs/ospp/rt-thread/bsp/toolchain/riscv64-linux-musleabi_for_x86_64-pc-linux-gnu/bin/../lib/gcc/riscv64-unknown-linux-musl/10.1.0/../../../../riscv64-unknown-linux-musl/lib/libc.a(stpncpy.o)
 .comment       0x0000000000000012       0x13 /home/zbtrs/ospp/rt-thread/bsp/toolchain/riscv64-linux-musleabi_for_x86_64-pc-linux-gnu/bin/../lib/gcc/riscv64-unknown-linux-musl/10.1.0/../../../../riscv64-unknown-linux-musl/lib/libc.a(strchr.o)
 .comment       0x0000000000000012       0x13 /home/zbtrs/ospp/rt-thread/bsp/toolchain/riscv64-linux-musleabi_for_x86_64-pc-linux-gnu/bin/../lib/gcc/riscv64-unknown-linux-musl/10.1.0/../../../../riscv64-unknown-linux-musl/lib/libc.a(strchrnul.o)
 .comment       0x0000000000000012       0x13 /home/zbtrs/ospp/rt-thread/bsp/toolchain/riscv64-linux-musleabi_for_x86_64-pc-linux-gnu/bin/../lib/gcc/riscv64-unknown-linux-musl/10.1.0/../../../../riscv64-unknown-linux-musl/lib/libc.a(default_attr.o)
 .comment       0x0000000000000012       0x13 /home/zbtrs/ospp/rt-thread/bsp/toolchain/riscv64-linux-musleabi_for_x86_64-pc-linux-gnu/bin/../lib/gcc/riscv64-unknown-linux-musl/10.1.0/../../../../riscv64-unknown-linux-musl/lib/libc.a(clock_gettime.o)
 .comment       0x0000000000000012       0x13 /home/zbtrs/ospp/rt-thread/bsp/toolchain/riscv64-linux-musleabi_for_x86_64-pc-linux-gnu/bin/../lib/gcc/riscv64-unknown-linux-musl/10.1.0/../../../../riscv64-unknown-linux-musl/lib/libc.a(wcrtomb.o)
 .comment       0x0000000000000012       0x13 /home/zbtrs/ospp/rt-thread/bsp/toolchain/riscv64-linux-musleabi_for_x86_64-pc-linux-gnu/bin/../lib/gcc/riscv64-unknown-linux-musl/10.1.0/../../../../riscv64-unknown-linux-musl/lib/libc.a(__stdio_exit.o)
 .comment       0x0000000000000012       0x13 /home/zbtrs/ospp/rt-thread/bsp/toolchain/riscv64-linux-musleabi_for_x86_64-pc-linux-gnu/bin/../lib/gcc/riscv64-unknown-linux-musl/10.1.0/libgcc.a(addtf3.o)
 .comment       0x0000000000000012       0x13 /home/zbtrs/ospp/rt-thread/bsp/toolchain/riscv64-linux-musleabi_for_x86_64-pc-linux-gnu/bin/../lib/gcc/riscv64-unknown-linux-musl/10.1.0/libgcc.a(eqtf2.o)
 .comment       0x0000000000000012       0x13 /home/zbtrs/ospp/rt-thread/bsp/toolchain/riscv64-linux-musleabi_for_x86_64-pc-linux-gnu/bin/../lib/gcc/riscv64-unknown-linux-musl/10.1.0/libgcc.a(multf3.o)
 .comment       0x0000000000000012       0x13 /home/zbtrs/ospp/rt-thread/bsp/toolchain/riscv64-linux-musleabi_for_x86_64-pc-linux-gnu/bin/../lib/gcc/riscv64-unknown-linux-musl/10.1.0/libgcc.a(subtf3.o)
 .comment       0x0000000000000012       0x13 /home/zbtrs/ospp/rt-thread/bsp/toolchain/riscv64-linux-musleabi_for_x86_64-pc-linux-gnu/bin/../lib/gcc/riscv64-unknown-linux-musl/10.1.0/libgcc.a(fixtfsi.o)
 .comment       0x0000000000000012       0x13 /home/zbtrs/ospp/rt-thread/bsp/toolchain/riscv64-linux-musleabi_for_x86_64-pc-linux-gnu/bin/../lib/gcc/riscv64-unknown-linux-musl/10.1.0/libgcc.a(fixunstfsi.o)
 .comment       0x0000000000000012       0x13 /home/zbtrs/ospp/rt-thread/bsp/toolchain/riscv64-linux-musleabi_for_x86_64-pc-linux-gnu/bin/../lib/gcc/riscv64-unknown-linux-musl/10.1.0/libgcc.a(floatsitf.o)
 .comment       0x0000000000000012       0x13 /home/zbtrs/ospp/rt-thread/bsp/toolchain/riscv64-linux-musleabi_for_x86_64-pc-linux-gnu/bin/../lib/gcc/riscv64-unknown-linux-musl/10.1.0/libgcc.a(floatunsitf.o)
 .comment       0x0000000000000012       0x13 /home/zbtrs/ospp/rt-thread/bsp/toolchain/riscv64-linux-musleabi_for_x86_64-pc-linux-gnu/bin/../lib/gcc/riscv64-unknown-linux-musl/10.1.0/libgcc.a(extenddftf2.o)
 .comment       0x0000000000000012       0x13 /home/zbtrs/ospp/rt-thread/bsp/toolchain/riscv64-linux-musleabi_for_x86_64-pc-linux-gnu/bin/../lib/gcc/riscv64-unknown-linux-musl/10.1.0/libgcc.a(_clzsi2.o)
 .comment       0x0000000000000012       0x13 /home/zbtrs/ospp/rt-thread/bsp/toolchain/riscv64-linux-musleabi_for_x86_64-pc-linux-gnu/bin/../lib/gcc/riscv64-unknown-linux-musl/10.1.0/libgcc.a(_clz.o)
 .comment       0x0000000000000012       0x13 /home/zbtrs/ospp/rt-thread/bsp/toolchain/riscv64-linux-musleabi_for_x86_64-pc-linux-gnu/bin/../lib/gcc/riscv64-unknown-linux-musl/10.1.0/crtend.o

.note.GNU-stack
                0x0000000000000000        0x0
 .note.GNU-stack
                0x0000000000000000        0x0 /home/zbtrs/ospp/rt-thread/bsp/toolchain/riscv64-linux-musleabi_for_x86_64-pc-linux-gnu/bin/../lib/gcc/riscv64-unknown-linux-musl/10.1.0/../../../../riscv64-unknown-linux-musl/lib/crt1.o
 .note.GNU-stack
                0x0000000000000000        0x0 /home/zbtrs/ospp/rt-thread/bsp/toolchain/riscv64-linux-musleabi_for_x86_64-pc-linux-gnu/bin/../lib/gcc/riscv64-unknown-linux-musl/10.1.0/crtbeginT.o
 .note.GNU-stack
                0x0000000000000000        0x0 /home/zbtrs/ospp/userapps/sdk/rt-thread/lib/risc-v/rv64gc//librtthread.a(rt_channel.o)
 .note.GNU-stack
                0x0000000000000000        0x0 /home/zbtrs/ospp/userapps/sdk/rt-thread/lib/risc-v/rv64gc//librtthread.a(rt_completion.o)
 .note.GNU-stack
                0x0000000000000000        0x0 /home/zbtrs/ospp/userapps/sdk/rt-thread/lib/risc-v/rv64gc//librtthread.a(rt_device.o)
 .note.GNU-stack
                0x0000000000000000        0x0 /home/zbtrs/ospp/userapps/sdk/rt-thread/lib/risc-v/rv64gc//librtthread.a(rt_ipc.o)
 .note.GNU-stack
                0x0000000000000000        0x0 /home/zbtrs/ospp/userapps/sdk/rt-thread/lib/risc-v/rv64gc//librtthread.a(rt_net.o)
 .note.GNU-stack
                0x0000000000000000        0x0 /home/zbtrs/ospp/userapps/sdk/rt-thread/lib/risc-v/rv64gc//librtthread.a(rt_syscall.o)
 .note.GNU-stack
                0x0000000000000000        0x0 /home/zbtrs/ospp/userapps/sdk/rt-thread/lib/risc-v/rv64gc//librtthread.a(rt_thread.o)
 .note.GNU-stack
                0x0000000000000000        0x0 /home/zbtrs/ospp/userapps/sdk/rt-thread/lib/risc-v/rv64gc//librtthread.a(rt_timer.o)
 .note.GNU-stack
                0x0000000000000000        0x0 /home/zbtrs/ospp/userapps/sdk/rt-thread/lib/risc-v/rv64gc//librtthread.a(stub.o)
 .note.GNU-stack
                0x0000000000000000        0x0 /tmp/cc2olldp.o
 .note.GNU-stack
                0x0000000000000000        0x0 /home/zbtrs/ospp/rt-thread/bsp/toolchain/riscv64-linux-musleabi_for_x86_64-pc-linux-gnu/bin/../lib/gcc/riscv64-unknown-linux-musl/10.1.0/../../../../riscv64-unknown-linux-musl/lib/libc.a(__libc_start_main.o)
 .note.GNU-stack
                0x0000000000000000        0x0 /home/zbtrs/ospp/rt-thread/bsp/toolchain/riscv64-linux-musleabi_for_x86_64-pc-linux-gnu/bin/../lib/gcc/riscv64-unknown-linux-musl/10.1.0/../../../../riscv64-unknown-linux-musl/lib/libc.a(__errno_location.o)
 .note.GNU-stack
                0x0000000000000000        0x0 /home/zbtrs/ospp/rt-thread/bsp/toolchain/riscv64-linux-musleabi_for_x86_64-pc-linux-gnu/bin/../lib/gcc/riscv64-unknown-linux-musl/10.1.0/../../../../riscv64-unknown-linux-musl/lib/libc.a(strerror.o)
 .note.GNU-stack
                0x0000000000000000        0x0 /home/zbtrs/ospp/rt-thread/bsp/toolchain/riscv64-linux-musleabi_for_x86_64-pc-linux-gnu/bin/../lib/gcc/riscv64-unknown-linux-musl/10.1.0/../../../../riscv64-unknown-linux-musl/lib/libc.a(exit.o)
 .note.GNU-stack
                0x0000000000000000        0x0 /home/zbtrs/ospp/rt-thread/bsp/toolchain/riscv64-linux-musleabi_for_x86_64-pc-linux-gnu/bin/../lib/gcc/riscv64-unknown-linux-musl/10.1.0/../../../../riscv64-unknown-linux-musl/lib/libc.a(fcntl.o)
 .note.GNU-stack
                0x0000000000000000        0x0 /home/zbtrs/ospp/rt-thread/bsp/toolchain/riscv64-linux-musleabi_for_x86_64-pc-linux-gnu/bin/../lib/gcc/riscv64-unknown-linux-musl/10.1.0/../../../../riscv64-unknown-linux-musl/lib/libc.a(libc.o)
 .note.GNU-stack
                0x0000000000000000        0x0 /home/zbtrs/ospp/rt-thread/bsp/toolchain/riscv64-linux-musleabi_for_x86_64-pc-linux-gnu/bin/../lib/gcc/riscv64-unknown-linux-musl/10.1.0/../../../../riscv64-unknown-linux-musl/lib/libc.a(syscall.o)
 .note.GNU-stack
                0x0000000000000000        0x0 /home/zbtrs/ospp/rt-thread/bsp/toolchain/riscv64-linux-musleabi_for_x86_64-pc-linux-gnu/bin/../lib/gcc/riscv64-unknown-linux-musl/10.1.0/../../../../riscv64-unknown-linux-musl/lib/libc.a(syscall.o)
 .note.GNU-stack
                0x0000000000000000        0x0 /home/zbtrs/ospp/rt-thread/bsp/toolchain/riscv64-linux-musleabi_for_x86_64-pc-linux-gnu/bin/../lib/gcc/riscv64-unknown-linux-musl/10.1.0/../../../../riscv64-unknown-linux-musl/lib/libc.a(syscall_ret.o)
 .note.GNU-stack
                0x0000000000000000        0x0 /home/zbtrs/ospp/rt-thread/bsp/toolchain/riscv64-linux-musleabi_for_x86_64-pc-linux-gnu/bin/../lib/gcc/riscv64-unknown-linux-musl/10.1.0/../../../../riscv64-unknown-linux-musl/lib/libc.a(__lctrans.o)
 .note.GNU-stack
                0x0000000000000000        0x0 /home/zbtrs/ospp/rt-thread/bsp/toolchain/riscv64-linux-musleabi_for_x86_64-pc-linux-gnu/bin/../lib/gcc/riscv64-unknown-linux-musl/10.1.0/../../../../riscv64-unknown-linux-musl/lib/libc.a(lite_malloc.o)
 .note.GNU-stack
                0x0000000000000000        0x0 /home/zbtrs/ospp/rt-thread/bsp/toolchain/riscv64-linux-musleabi_for_x86_64-pc-linux-gnu/bin/../lib/gcc/riscv64-unknown-linux-musl/10.1.0/../../../../riscv64-unknown-linux-musl/lib/libc.a(malloc.o)
 .note.GNU-stack
                0x0000000000000000        0x0 /home/zbtrs/ospp/rt-thread/bsp/toolchain/riscv64-linux-musleabi_for_x86_64-pc-linux-gnu/bin/../lib/gcc/riscv64-unknown-linux-musl/10.1.0/../../../../riscv64-unknown-linux-musl/lib/libc.a(getopt_long.o)
 .note.GNU-stack
                0x0000000000000000        0x0 /home/zbtrs/ospp/rt-thread/bsp/toolchain/riscv64-linux-musleabi_for_x86_64-pc-linux-gnu/bin/../lib/gcc/riscv64-unknown-linux-musl/10.1.0/../../../../riscv64-unknown-linux-musl/lib/libc.a(madvise.o)
 .note.GNU-stack
                0x0000000000000000        0x0 /home/zbtrs/ospp/rt-thread/bsp/toolchain/riscv64-linux-musleabi_for_x86_64-pc-linux-gnu/bin/../lib/gcc/riscv64-unknown-linux-musl/10.1.0/../../../../riscv64-unknown-linux-musl/lib/libc.a(mmap.o)
 .note.GNU-stack
                0x0000000000000000        0x0 /home/zbtrs/ospp/rt-thread/bsp/toolchain/riscv64-linux-musleabi_for_x86_64-pc-linux-gnu/bin/../lib/gcc/riscv64-unknown-linux-musl/10.1.0/../../../../riscv64-unknown-linux-musl/lib/libc.a(mremap.o)
 .note.GNU-stack
                0x0000000000000000        0x0 /home/zbtrs/ospp/rt-thread/bsp/toolchain/riscv64-linux-musleabi_for_x86_64-pc-linux-gnu/bin/../lib/gcc/riscv64-unknown-linux-musl/10.1.0/../../../../riscv64-unknown-linux-musl/lib/libc.a(munmap.o)
 .note.GNU-stack
                0x0000000000000000        0x0 /home/zbtrs/ospp/rt-thread/bsp/toolchain/riscv64-linux-musleabi_for_x86_64-pc-linux-gnu/bin/../lib/gcc/riscv64-unknown-linux-musl/10.1.0/../../../../riscv64-unknown-linux-musl/lib/libc.a(mblen.o)
 .note.GNU-stack
                0x0000000000000000        0x0 /home/zbtrs/ospp/rt-thread/bsp/toolchain/riscv64-linux-musleabi_for_x86_64-pc-linux-gnu/bin/../lib/gcc/riscv64-unknown-linux-musl/10.1.0/../../../../riscv64-unknown-linux-musl/lib/libc.a(mbtowc.o)
 .note.GNU-stack
                0x0000000000000000        0x0 /home/zbtrs/ospp/rt-thread/bsp/toolchain/riscv64-linux-musleabi_for_x86_64-pc-linux-gnu/bin/../lib/gcc/riscv64-unknown-linux-musl/10.1.0/../../../../riscv64-unknown-linux-musl/lib/libc.a(accept.o)
 .note.GNU-stack
                0x0000000000000000        0x0 /home/zbtrs/ospp/rt-thread/bsp/toolchain/riscv64-linux-musleabi_for_x86_64-pc-linux-gnu/bin/../lib/gcc/riscv64-unknown-linux-musl/10.1.0/../../../../riscv64-unknown-linux-musl/lib/libc.a(bind.o)
 .note.GNU-stack
                0x0000000000000000        0x0 /home/zbtrs/ospp/rt-thread/bsp/toolchain/riscv64-linux-musleabi_for_x86_64-pc-linux-gnu/bin/../lib/gcc/riscv64-unknown-linux-musl/10.1.0/../../../../riscv64-unknown-linux-musl/lib/libc.a(connect.o)
 .note.GNU-stack
                0x0000000000000000        0x0 /home/zbtrs/ospp/rt-thread/bsp/toolchain/riscv64-linux-musleabi_for_x86_64-pc-linux-gnu/bin/../lib/gcc/riscv64-unknown-linux-musl/10.1.0/../../../../riscv64-unknown-linux-musl/lib/libc.a(htonl.o)
 .note.GNU-stack
                0x0000000000000000        0x0 /home/zbtrs/ospp/rt-thread/bsp/toolchain/riscv64-linux-musleabi_for_x86_64-pc-linux-gnu/bin/../lib/gcc/riscv64-unknown-linux-musl/10.1.0/../../../../riscv64-unknown-linux-musl/lib/libc.a(htons.o)
 .note.GNU-stack
                0x0000000000000000        0x0 /home/zbtrs/ospp/rt-thread/bsp/toolchain/riscv64-linux-musleabi_for_x86_64-pc-linux-gnu/bin/../lib/gcc/riscv64-unknown-linux-musl/10.1.0/../../../../riscv64-unknown-linux-musl/lib/libc.a(listen.o)
 .note.GNU-stack
                0x0000000000000000        0x0 /home/zbtrs/ospp/rt-thread/bsp/toolchain/riscv64-linux-musleabi_for_x86_64-pc-linux-gnu/bin/../lib/gcc/riscv64-unknown-linux-musl/10.1.0/../../../../riscv64-unknown-linux-musl/lib/libc.a(setsockopt.o)
 .note.GNU-stack
                0x0000000000000000        0x0 /home/zbtrs/ospp/rt-thread/bsp/toolchain/riscv64-linux-musleabi_for_x86_64-pc-linux-gnu/bin/../lib/gcc/riscv64-unknown-linux-musl/10.1.0/../../../../riscv64-unknown-linux-musl/lib/libc.a(socket.o)
 .note.GNU-stack
                0x0000000000000000        0x0 /home/zbtrs/ospp/rt-thread/bsp/toolchain/riscv64-linux-musleabi_for_x86_64-pc-linux-gnu/bin/../lib/gcc/riscv64-unknown-linux-musl/10.1.0/../../../../riscv64-unknown-linux-musl/lib/libc.a(rand.o)
 .note.GNU-stack
                0x0000000000000000        0x0 /home/zbtrs/ospp/rt-thread/bsp/toolchain/riscv64-linux-musleabi_for_x86_64-pc-linux-gnu/bin/../lib/gcc/riscv64-unknown-linux-musl/10.1.0/../../../../riscv64-unknown-linux-musl/lib/libc.a(select.o)
 .note.GNU-stack
                0x0000000000000000        0x0 /home/zbtrs/ospp/rt-thread/bsp/toolchain/riscv64-linux-musleabi_for_x86_64-pc-linux-gnu/bin/../lib/gcc/riscv64-unknown-linux-musl/10.1.0/../../../../riscv64-unknown-linux-musl/lib/libc.a(perror.o)
 .note.GNU-stack
                0x0000000000000000        0x0 /home/zbtrs/ospp/rt-thread/bsp/toolchain/riscv64-linux-musleabi_for_x86_64-pc-linux-gnu/bin/../lib/gcc/riscv64-unknown-linux-musl/10.1.0/../../../../riscv64-unknown-linux-musl/lib/libc.a(printf.o)
 .note.GNU-stack
                0x0000000000000000        0x0 /home/zbtrs/ospp/rt-thread/bsp/toolchain/riscv64-linux-musleabi_for_x86_64-pc-linux-gnu/bin/../lib/gcc/riscv64-unknown-linux-musl/10.1.0/../../../../riscv64-unknown-linux-musl/lib/libc.a(puts.o)
 .note.GNU-stack
                0x0000000000000000        0x0 /home/zbtrs/ospp/rt-thread/bsp/toolchain/riscv64-linux-musleabi_for_x86_64-pc-linux-gnu/bin/../lib/gcc/riscv64-unknown-linux-musl/10.1.0/../../../../riscv64-unknown-linux-musl/lib/libc.a(stderr.o)
 .note.GNU-stack
                0x0000000000000000        0x0 /home/zbtrs/ospp/rt-thread/bsp/toolchain/riscv64-linux-musleabi_for_x86_64-pc-linux-gnu/bin/../lib/gcc/riscv64-unknown-linux-musl/10.1.0/../../../../riscv64-unknown-linux-musl/lib/libc.a(stdout.o)
 .note.GNU-stack
                0x0000000000000000        0x0 /home/zbtrs/ospp/rt-thread/bsp/toolchain/riscv64-linux-musleabi_for_x86_64-pc-linux-gnu/bin/../lib/gcc/riscv64-unknown-linux-musl/10.1.0/../../../../riscv64-unknown-linux-musl/lib/libc.a(vfprintf.o)
 .note.GNU-stack
                0x0000000000000000        0x0 /home/zbtrs/ospp/rt-thread/bsp/toolchain/riscv64-linux-musleabi_for_x86_64-pc-linux-gnu/bin/../lib/gcc/riscv64-unknown-linux-musl/10.1.0/../../../../riscv64-unknown-linux-musl/lib/libc.a(vsnprintf.o)
 .note.GNU-stack
                0x0000000000000000        0x0 /home/zbtrs/ospp/rt-thread/bsp/toolchain/riscv64-linux-musleabi_for_x86_64-pc-linux-gnu/bin/../lib/gcc/riscv64-unknown-linux-musl/10.1.0/../../../../riscv64-unknown-linux-musl/lib/libc.a(vsprintf.o)
 .note.GNU-stack
                0x0000000000000000        0x0 /home/zbtrs/ospp/rt-thread/bsp/toolchain/riscv64-linux-musleabi_for_x86_64-pc-linux-gnu/bin/../lib/gcc/riscv64-unknown-linux-musl/10.1.0/../../../../riscv64-unknown-linux-musl/lib/libc.a(memcmp.o)
 .note.GNU-stack
                0x0000000000000000        0x0 /home/zbtrs/ospp/rt-thread/bsp/toolchain/riscv64-linux-musleabi_for_x86_64-pc-linux-gnu/bin/../lib/gcc/riscv64-unknown-linux-musl/10.1.0/../../../../riscv64-unknown-linux-musl/lib/libc.a(memcpy.o)
 .note.GNU-stack
                0x0000000000000000        0x0 /home/zbtrs/ospp/rt-thread/bsp/toolchain/riscv64-linux-musleabi_for_x86_64-pc-linux-gnu/bin/../lib/gcc/riscv64-unknown-linux-musl/10.1.0/../../../../riscv64-unknown-linux-musl/lib/libc.a(memmove.o)
 .note.GNU-stack
                0x0000000000000000        0x0 /home/zbtrs/ospp/rt-thread/bsp/toolchain/riscv64-linux-musleabi_for_x86_64-pc-linux-gnu/bin/../lib/gcc/riscv64-unknown-linux-musl/10.1.0/../../../../riscv64-unknown-linux-musl/lib/libc.a(memset.o)
 .note.GNU-stack
                0x0000000000000000        0x0 /home/zbtrs/ospp/rt-thread/bsp/toolchain/riscv64-linux-musleabi_for_x86_64-pc-linux-gnu/bin/../lib/gcc/riscv64-unknown-linux-musl/10.1.0/../../../../riscv64-unknown-linux-musl/lib/libc.a(strcasecmp.o)
 .note.GNU-stack
                0x0000000000000000        0x0 /home/zbtrs/ospp/rt-thread/bsp/toolchain/riscv64-linux-musleabi_for_x86_64-pc-linux-gnu/bin/../lib/gcc/riscv64-unknown-linux-musl/10.1.0/../../../../riscv64-unknown-linux-musl/lib/libc.a(strcmp.o)
 .note.GNU-stack
                0x0000000000000000        0x0 /home/zbtrs/ospp/rt-thread/bsp/toolchain/riscv64-linux-musleabi_for_x86_64-pc-linux-gnu/bin/../lib/gcc/riscv64-unknown-linux-musl/10.1.0/../../../../riscv64-unknown-linux-musl/lib/libc.a(strdup.o)
 .note.GNU-stack
                0x0000000000000000        0x0 /home/zbtrs/ospp/rt-thread/bsp/toolchain/riscv64-linux-musleabi_for_x86_64-pc-linux-gnu/bin/../lib/gcc/riscv64-unknown-linux-musl/10.1.0/../../../../riscv64-unknown-linux-musl/lib/libc.a(strlen.o)
 .note.GNU-stack
                0x0000000000000000        0x0 /home/zbtrs/ospp/rt-thread/bsp/toolchain/riscv64-linux-musleabi_for_x86_64-pc-linux-gnu/bin/../lib/gcc/riscv64-unknown-linux-musl/10.1.0/../../../../riscv64-unknown-linux-musl/lib/libc.a(strncmp.o)
 .note.GNU-stack
                0x0000000000000000        0x0 /home/zbtrs/ospp/rt-thread/bsp/toolchain/riscv64-linux-musleabi_for_x86_64-pc-linux-gnu/bin/../lib/gcc/riscv64-unknown-linux-musl/10.1.0/../../../../riscv64-unknown-linux-musl/lib/libc.a(strncpy.o)
 .note.GNU-stack
                0x0000000000000000        0x0 /home/zbtrs/ospp/rt-thread/bsp/toolchain/riscv64-linux-musleabi_for_x86_64-pc-linux-gnu/bin/../lib/gcc/riscv64-unknown-linux-musl/10.1.0/../../../../riscv64-unknown-linux-musl/lib/libc.a(strnlen.o)
 .note.GNU-stack
                0x0000000000000000        0x0 /home/zbtrs/ospp/rt-thread/bsp/toolchain/riscv64-linux-musleabi_for_x86_64-pc-linux-gnu/bin/../lib/gcc/riscv64-unknown-linux-musl/10.1.0/../../../../riscv64-unknown-linux-musl/lib/libc.a(strstr.o)
 .note.GNU-stack
                0x0000000000000000        0x0 /home/zbtrs/ospp/rt-thread/bsp/toolchain/riscv64-linux-musleabi_for_x86_64-pc-linux-gnu/bin/../lib/gcc/riscv64-unknown-linux-musl/10.1.0/../../../../riscv64-unknown-linux-musl/lib/libc.a(__lock.o)
 .note.GNU-stack
                0x0000000000000000        0x0 /home/zbtrs/ospp/rt-thread/bsp/toolchain/riscv64-linux-musleabi_for_x86_64-pc-linux-gnu/bin/../lib/gcc/riscv64-unknown-linux-musl/10.1.0/../../../../riscv64-unknown-linux-musl/lib/libc.a(__syscall_cp.o)
 .note.GNU-stack
                0x0000000000000000        0x0 /home/zbtrs/ospp/rt-thread/bsp/toolchain/riscv64-linux-musleabi_for_x86_64-pc-linux-gnu/bin/../lib/gcc/riscv64-unknown-linux-musl/10.1.0/../../../../riscv64-unknown-linux-musl/lib/libc.a(__wait.o)
 .note.GNU-stack
                0x0000000000000000        0x0 /home/zbtrs/ospp/rt-thread/bsp/toolchain/riscv64-linux-musleabi_for_x86_64-pc-linux-gnu/bin/../lib/gcc/riscv64-unknown-linux-musl/10.1.0/../../../../riscv64-unknown-linux-musl/lib/libc.a(pthread_create.o)
 .note.GNU-stack
                0x0000000000000000        0x0 /home/zbtrs/ospp/rt-thread/bsp/toolchain/riscv64-linux-musleabi_for_x86_64-pc-linux-gnu/bin/../lib/gcc/riscv64-unknown-linux-musl/10.1.0/../../../../riscv64-unknown-linux-musl/lib/libc.a(__set_thread_area.o)
 .note.GNU-stack
                0x0000000000000000        0x0 /home/zbtrs/ospp/rt-thread/bsp/toolchain/riscv64-linux-musleabi_for_x86_64-pc-linux-gnu/bin/../lib/gcc/riscv64-unknown-linux-musl/10.1.0/../../../../riscv64-unknown-linux-musl/lib/libc.a(__unmapself.o)
 .note.GNU-stack
                0x0000000000000000        0x0 /home/zbtrs/ospp/rt-thread/bsp/toolchain/riscv64-linux-musleabi_for_x86_64-pc-linux-gnu/bin/../lib/gcc/riscv64-unknown-linux-musl/10.1.0/../../../../riscv64-unknown-linux-musl/lib/libc.a(clone.o)
 .note.GNU-stack
                0x0000000000000000        0x0 /home/zbtrs/ospp/rt-thread/bsp/toolchain/riscv64-linux-musleabi_for_x86_64-pc-linux-gnu/bin/../lib/gcc/riscv64-unknown-linux-musl/10.1.0/../../../../riscv64-unknown-linux-musl/lib/libc.a(vmlock.o)
 .note.GNU-stack
                0x0000000000000000        0x0 /home/zbtrs/ospp/rt-thread/bsp/toolchain/riscv64-linux-musleabi_for_x86_64-pc-linux-gnu/bin/../lib/gcc/riscv64-unknown-linux-musl/10.1.0/../../../../riscv64-unknown-linux-musl/lib/libc.a(time.o)
 .note.GNU-stack
                0x0000000000000000        0x0 /home/zbtrs/ospp/rt-thread/bsp/toolchain/riscv64-linux-musleabi_for_x86_64-pc-linux-gnu/bin/../lib/gcc/riscv64-unknown-linux-musl/10.1.0/../../../../riscv64-unknown-linux-musl/lib/libc.a(close.o)
 .note.GNU-stack
                0x0000000000000000        0x0 /home/zbtrs/ospp/rt-thread/bsp/toolchain/riscv64-linux-musleabi_for_x86_64-pc-linux-gnu/bin/../lib/gcc/riscv64-unknown-linux-musl/10.1.0/../../../../riscv64-unknown-linux-musl/lib/libc.a(tolower.o)
 .note.GNU-stack
                0x0000000000000000        0x0 /home/zbtrs/ospp/rt-thread/bsp/toolchain/riscv64-linux-musleabi_for_x86_64-pc-linux-gnu/bin/../lib/gcc/riscv64-unknown-linux-musl/10.1.0/../../../../riscv64-unknown-linux-musl/lib/libc.a(__environ.o)
 .note.GNU-stack
                0x0000000000000000        0x0 /home/zbtrs/ospp/rt-thread/bsp/toolchain/riscv64-linux-musleabi_for_x86_64-pc-linux-gnu/bin/../lib/gcc/riscv64-unknown-linux-musl/10.1.0/../../../../riscv64-unknown-linux-musl/lib/libc.a(__init_tls.o)
 .note.GNU-stack
                0x0000000000000000        0x0 /home/zbtrs/ospp/rt-thread/bsp/toolchain/riscv64-linux-musleabi_for_x86_64-pc-linux-gnu/bin/../lib/gcc/riscv64-unknown-linux-musl/10.1.0/../../../../riscv64-unknown-linux-musl/lib/libc.a(__stack_chk_fail.o)
 .note.GNU-stack
                0x0000000000000000        0x0 /home/zbtrs/ospp/rt-thread/bsp/toolchain/riscv64-linux-musleabi_for_x86_64-pc-linux-gnu/bin/../lib/gcc/riscv64-unknown-linux-musl/10.1.0/../../../../riscv64-unknown-linux-musl/lib/libc.a(_Exit.o)
 .note.GNU-stack
                0x0000000000000000        0x0 /home/zbtrs/ospp/rt-thread/bsp/toolchain/riscv64-linux-musleabi_for_x86_64-pc-linux-gnu/bin/../lib/gcc/riscv64-unknown-linux-musl/10.1.0/../../../../riscv64-unknown-linux-musl/lib/libc.a(expand_heap.o)
 .note.GNU-stack
                0x0000000000000000        0x0 /home/zbtrs/ospp/rt-thread/bsp/toolchain/riscv64-linux-musleabi_for_x86_64-pc-linux-gnu/bin/../lib/gcc/riscv64-unknown-linux-musl/10.1.0/../../../../riscv64-unknown-linux-musl/lib/libc.a(__fpclassifyl.o)
 .note.GNU-stack
                0x0000000000000000        0x0 /home/zbtrs/ospp/rt-thread/bsp/toolchain/riscv64-linux-musleabi_for_x86_64-pc-linux-gnu/bin/../lib/gcc/riscv64-unknown-linux-musl/10.1.0/../../../../riscv64-unknown-linux-musl/lib/libc.a(__signbitl.o)
 .note.GNU-stack
                0x0000000000000000        0x0 /home/zbtrs/ospp/rt-thread/bsp/toolchain/riscv64-linux-musleabi_for_x86_64-pc-linux-gnu/bin/../lib/gcc/riscv64-unknown-linux-musl/10.1.0/../../../../riscv64-unknown-linux-musl/lib/libc.a(frexpl.o)
 .note.GNU-stack
                0x0000000000000000        0x0 /home/zbtrs/ospp/rt-thread/bsp/toolchain/riscv64-linux-musleabi_for_x86_64-pc-linux-gnu/bin/../lib/gcc/riscv64-unknown-linux-musl/10.1.0/../../../../riscv64-unknown-linux-musl/lib/libc.a(getopt.o)
 .note.GNU-stack
                0x0000000000000000        0x0 /home/zbtrs/ospp/rt-thread/bsp/toolchain/riscv64-linux-musleabi_for_x86_64-pc-linux-gnu/bin/../lib/gcc/riscv64-unknown-linux-musl/10.1.0/../../../../riscv64-unknown-linux-musl/lib/libc.a(mprotect.o)
 .note.GNU-stack
                0x0000000000000000        0x0 /home/zbtrs/ospp/rt-thread/bsp/toolchain/riscv64-linux-musleabi_for_x86_64-pc-linux-gnu/bin/../lib/gcc/riscv64-unknown-linux-musl/10.1.0/../../../../riscv64-unknown-linux-musl/lib/libc.a(internal.o)
 .note.GNU-stack
                0x0000000000000000        0x0 /home/zbtrs/ospp/rt-thread/bsp/toolchain/riscv64-linux-musleabi_for_x86_64-pc-linux-gnu/bin/../lib/gcc/riscv64-unknown-linux-musl/10.1.0/../../../../riscv64-unknown-linux-musl/lib/libc.a(wctomb.o)
 .note.GNU-stack
                0x0000000000000000        0x0 /home/zbtrs/ospp/rt-thread/bsp/toolchain/riscv64-linux-musleabi_for_x86_64-pc-linux-gnu/bin/../lib/gcc/riscv64-unknown-linux-musl/10.1.0/../../../../riscv64-unknown-linux-musl/lib/libc.a(block.o)
 .note.GNU-stack
                0x0000000000000000        0x0 /home/zbtrs/ospp/rt-thread/bsp/toolchain/riscv64-linux-musleabi_for_x86_64-pc-linux-gnu/bin/../lib/gcc/riscv64-unknown-linux-musl/10.1.0/../../../../riscv64-unknown-linux-musl/lib/libc.a(__lockfile.o)
 .note.GNU-stack
                0x0000000000000000        0x0 /home/zbtrs/ospp/rt-thread/bsp/toolchain/riscv64-linux-musleabi_for_x86_64-pc-linux-gnu/bin/../lib/gcc/riscv64-unknown-linux-musl/10.1.0/../../../../riscv64-unknown-linux-musl/lib/libc.a(__overflow.o)
 .note.GNU-stack
                0x0000000000000000        0x0 /home/zbtrs/ospp/rt-thread/bsp/toolchain/riscv64-linux-musleabi_for_x86_64-pc-linux-gnu/bin/../lib/gcc/riscv64-unknown-linux-musl/10.1.0/../../../../riscv64-unknown-linux-musl/lib/libc.a(__stdio_close.o)
 .note.GNU-stack
                0x0000000000000000        0x0 /home/zbtrs/ospp/rt-thread/bsp/toolchain/riscv64-linux-musleabi_for_x86_64-pc-linux-gnu/bin/../lib/gcc/riscv64-unknown-linux-musl/10.1.0/../../../../riscv64-unknown-linux-musl/lib/libc.a(__stdio_seek.o)
 .note.GNU-stack
                0x0000000000000000        0x0 /home/zbtrs/ospp/rt-thread/bsp/toolchain/riscv64-linux-musleabi_for_x86_64-pc-linux-gnu/bin/../lib/gcc/riscv64-unknown-linux-musl/10.1.0/../../../../riscv64-unknown-linux-musl/lib/libc.a(__stdio_write.o)
 .note.GNU-stack
                0x0000000000000000        0x0 /home/zbtrs/ospp/rt-thread/bsp/toolchain/riscv64-linux-musleabi_for_x86_64-pc-linux-gnu/bin/../lib/gcc/riscv64-unknown-linux-musl/10.1.0/../../../../riscv64-unknown-linux-musl/lib/libc.a(__stdout_write.o)
 .note.GNU-stack
                0x0000000000000000        0x0 /home/zbtrs/ospp/rt-thread/bsp/toolchain/riscv64-linux-musleabi_for_x86_64-pc-linux-gnu/bin/../lib/gcc/riscv64-unknown-linux-musl/10.1.0/../../../../riscv64-unknown-linux-musl/lib/libc.a(__towrite.o)
 .note.GNU-stack
                0x0000000000000000        0x0 /home/zbtrs/ospp/rt-thread/bsp/toolchain/riscv64-linux-musleabi_for_x86_64-pc-linux-gnu/bin/../lib/gcc/riscv64-unknown-linux-musl/10.1.0/../../../../riscv64-unknown-linux-musl/lib/libc.a(fputc.o)
 .note.GNU-stack
                0x0000000000000000        0x0 /home/zbtrs/ospp/rt-thread/bsp/toolchain/riscv64-linux-musleabi_for_x86_64-pc-linux-gnu/bin/../lib/gcc/riscv64-unknown-linux-musl/10.1.0/../../../../riscv64-unknown-linux-musl/lib/libc.a(fputs.o)
 .note.GNU-stack
                0x0000000000000000        0x0 /home/zbtrs/ospp/rt-thread/bsp/toolchain/riscv64-linux-musleabi_for_x86_64-pc-linux-gnu/bin/../lib/gcc/riscv64-unknown-linux-musl/10.1.0/../../../../riscv64-unknown-linux-musl/lib/libc.a(fwrite.o)
 .note.GNU-stack
                0x0000000000000000        0x0 /home/zbtrs/ospp/rt-thread/bsp/toolchain/riscv64-linux-musleabi_for_x86_64-pc-linux-gnu/bin/../lib/gcc/riscv64-unknown-linux-musl/10.1.0/../../../../riscv64-unknown-linux-musl/lib/libc.a(ofl.o)
 .note.GNU-stack
                0x0000000000000000        0x0 /home/zbtrs/ospp/rt-thread/bsp/toolchain/riscv64-linux-musleabi_for_x86_64-pc-linux-gnu/bin/../lib/gcc/riscv64-unknown-linux-musl/10.1.0/../../../../riscv64-unknown-linux-musl/lib/libc.a(putc.o)
 .note.GNU-stack
                0x0000000000000000        0x0 /home/zbtrs/ospp/rt-thread/bsp/toolchain/riscv64-linux-musleabi_for_x86_64-pc-linux-gnu/bin/../lib/gcc/riscv64-unknown-linux-musl/10.1.0/../../../../riscv64-unknown-linux-musl/lib/libc.a(memchr.o)
 .note.GNU-stack
                0x0000000000000000        0x0 /home/zbtrs/ospp/rt-thread/bsp/toolchain/riscv64-linux-musleabi_for_x86_64-pc-linux-gnu/bin/../lib/gcc/riscv64-unknown-linux-musl/10.1.0/../../../../riscv64-unknown-linux-musl/lib/libc.a(stpncpy.o)
 .note.GNU-stack
                0x0000000000000000        0x0 /home/zbtrs/ospp/rt-thread/bsp/toolchain/riscv64-linux-musleabi_for_x86_64-pc-linux-gnu/bin/../lib/gcc/riscv64-unknown-linux-musl/10.1.0/../../../../riscv64-unknown-linux-musl/lib/libc.a(strchr.o)
 .note.GNU-stack
                0x0000000000000000        0x0 /home/zbtrs/ospp/rt-thread/bsp/toolchain/riscv64-linux-musleabi_for_x86_64-pc-linux-gnu/bin/../lib/gcc/riscv64-unknown-linux-musl/10.1.0/../../../../riscv64-unknown-linux-musl/lib/libc.a(strchrnul.o)
 .note.GNU-stack
                0x0000000000000000        0x0 /home/zbtrs/ospp/rt-thread/bsp/toolchain/riscv64-linux-musleabi_for_x86_64-pc-linux-gnu/bin/../lib/gcc/riscv64-unknown-linux-musl/10.1.0/../../../../riscv64-unknown-linux-musl/lib/libc.a(default_attr.o)
 .note.GNU-stack
                0x0000000000000000        0x0 /home/zbtrs/ospp/rt-thread/bsp/toolchain/riscv64-linux-musleabi_for_x86_64-pc-linux-gnu/bin/../lib/gcc/riscv64-unknown-linux-musl/10.1.0/../../../../riscv64-unknown-linux-musl/lib/libc.a(clock_gettime.o)
 .note.GNU-stack
                0x0000000000000000        0x0 /home/zbtrs/ospp/rt-thread/bsp/toolchain/riscv64-linux-musleabi_for_x86_64-pc-linux-gnu/bin/../lib/gcc/riscv64-unknown-linux-musl/10.1.0/../../../../riscv64-unknown-linux-musl/lib/libc.a(wcrtomb.o)
 .note.GNU-stack
                0x0000000000000000        0x0 /home/zbtrs/ospp/rt-thread/bsp/toolchain/riscv64-linux-musleabi_for_x86_64-pc-linux-gnu/bin/../lib/gcc/riscv64-unknown-linux-musl/10.1.0/../../../../riscv64-unknown-linux-musl/lib/libc.a(__stdio_exit.o)
 .note.GNU-stack
                0x0000000000000000        0x0 /home/zbtrs/ospp/rt-thread/bsp/toolchain/riscv64-linux-musleabi_for_x86_64-pc-linux-gnu/bin/../lib/gcc/riscv64-unknown-linux-musl/10.1.0/libgcc.a(addtf3.o)
 .note.GNU-stack
                0x0000000000000000        0x0 /home/zbtrs/ospp/rt-thread/bsp/toolchain/riscv64-linux-musleabi_for_x86_64-pc-linux-gnu/bin/../lib/gcc/riscv64-unknown-linux-musl/10.1.0/libgcc.a(eqtf2.o)
 .note.GNU-stack
                0x0000000000000000        0x0 /home/zbtrs/ospp/rt-thread/bsp/toolchain/riscv64-linux-musleabi_for_x86_64-pc-linux-gnu/bin/../lib/gcc/riscv64-unknown-linux-musl/10.1.0/libgcc.a(multf3.o)
 .note.GNU-stack
                0x0000000000000000        0x0 /home/zbtrs/ospp/rt-thread/bsp/toolchain/riscv64-linux-musleabi_for_x86_64-pc-linux-gnu/bin/../lib/gcc/riscv64-unknown-linux-musl/10.1.0/libgcc.a(subtf3.o)
 .note.GNU-stack
                0x0000000000000000        0x0 /home/zbtrs/ospp/rt-thread/bsp/toolchain/riscv64-linux-musleabi_for_x86_64-pc-linux-gnu/bin/../lib/gcc/riscv64-unknown-linux-musl/10.1.0/libgcc.a(fixtfsi.o)
 .note.GNU-stack
                0x0000000000000000        0x0 /home/zbtrs/ospp/rt-thread/bsp/toolchain/riscv64-linux-musleabi_for_x86_64-pc-linux-gnu/bin/../lib/gcc/riscv64-unknown-linux-musl/10.1.0/libgcc.a(fixunstfsi.o)
 .note.GNU-stack
                0x0000000000000000        0x0 /home/zbtrs/ospp/rt-thread/bsp/toolchain/riscv64-linux-musleabi_for_x86_64-pc-linux-gnu/bin/../lib/gcc/riscv64-unknown-linux-musl/10.1.0/libgcc.a(floatsitf.o)
 .note.GNU-stack
                0x0000000000000000        0x0 /home/zbtrs/ospp/rt-thread/bsp/toolchain/riscv64-linux-musleabi_for_x86_64-pc-linux-gnu/bin/../lib/gcc/riscv64-unknown-linux-musl/10.1.0/libgcc.a(floatunsitf.o)
 .note.GNU-stack
                0x0000000000000000        0x0 /home/zbtrs/ospp/rt-thread/bsp/toolchain/riscv64-linux-musleabi_for_x86_64-pc-linux-gnu/bin/../lib/gcc/riscv64-unknown-linux-musl/10.1.0/libgcc.a(extenddftf2.o)
 .note.GNU-stack
                0x0000000000000000        0x0 /home/zbtrs/ospp/rt-thread/bsp/toolchain/riscv64-linux-musleabi_for_x86_64-pc-linux-gnu/bin/../lib/gcc/riscv64-unknown-linux-musl/10.1.0/libgcc.a(_clzsi2.o)
 .note.GNU-stack
                0x0000000000000000        0x0 /home/zbtrs/ospp/rt-thread/bsp/toolchain/riscv64-linux-musleabi_for_x86_64-pc-linux-gnu/bin/../lib/gcc/riscv64-unknown-linux-musl/10.1.0/libgcc.a(_clz.o)
 .note.GNU-stack
                0x0000000000000000        0x0 /home/zbtrs/ospp/rt-thread/bsp/toolchain/riscv64-linux-musleabi_for_x86_64-pc-linux-gnu/bin/../lib/gcc/riscv64-unknown-linux-musl/10.1.0/crtend.o

.debug_info     0x0000000000000000     0x80d7
 .debug_info    0x0000000000000000      0x7d0 /home/zbtrs/ospp/userapps/sdk/rt-thread/lib/risc-v/rv64gc//librtthread.a(rt_channel.o)
 .debug_info    0x00000000000007d0      0x1da /home/zbtrs/ospp/userapps/sdk/rt-thread/lib/risc-v/rv64gc//librtthread.a(rt_completion.o)
 .debug_info    0x00000000000009aa      0xad5 /home/zbtrs/ospp/userapps/sdk/rt-thread/lib/risc-v/rv64gc//librtthread.a(rt_device.o)
 .debug_info    0x000000000000147f       0x72 /home/zbtrs/ospp/userapps/sdk/rt-thread/lib/risc-v/rv64gc//librtthread.a(rt_ipc.o)
 .debug_info    0x00000000000014f1      0xa7e /home/zbtrs/ospp/userapps/sdk/rt-thread/lib/risc-v/rv64gc//librtthread.a(rt_net.o)
 .debug_info    0x0000000000001f6f     0x1451 /home/zbtrs/ospp/userapps/sdk/rt-thread/lib/risc-v/rv64gc//librtthread.a(rt_syscall.o)
 .debug_info    0x00000000000033c0      0xc6c /home/zbtrs/ospp/userapps/sdk/rt-thread/lib/risc-v/rv64gc//librtthread.a(rt_thread.o)
 .debug_info    0x000000000000402c     0x1057 /home/zbtrs/ospp/userapps/sdk/rt-thread/lib/risc-v/rv64gc//librtthread.a(rt_timer.o)
 .debug_info    0x0000000000005083      0x814 /home/zbtrs/ospp/userapps/sdk/rt-thread/lib/risc-v/rv64gc//librtthread.a(stub.o)
 .debug_info    0x0000000000005897       0x53 /tmp/cc2olldp.o
 .debug_info    0x00000000000058ea      0x69b /home/zbtrs/ospp/rt-thread/bsp/toolchain/riscv64-linux-musleabi_for_x86_64-pc-linux-gnu/bin/../lib/gcc/riscv64-unknown-linux-musl/10.1.0/libgcc.a(addtf3.o)
 .debug_info    0x0000000000005f85      0x2bc /home/zbtrs/ospp/rt-thread/bsp/toolchain/riscv64-linux-musleabi_for_x86_64-pc-linux-gnu/bin/../lib/gcc/riscv64-unknown-linux-musl/10.1.0/libgcc.a(eqtf2.o)
 .debug_info    0x0000000000006241      0x8eb /home/zbtrs/ospp/rt-thread/bsp/toolchain/riscv64-linux-musleabi_for_x86_64-pc-linux-gnu/bin/../lib/gcc/riscv64-unknown-linux-musl/10.1.0/libgcc.a(multf3.o)
 .debug_info    0x0000000000006b2c      0x67f /home/zbtrs/ospp/rt-thread/bsp/toolchain/riscv64-linux-musleabi_for_x86_64-pc-linux-gnu/bin/../lib/gcc/riscv64-unknown-linux-musl/10.1.0/libgcc.a(subtf3.o)
 .debug_info    0x00000000000071ab      0x239 /home/zbtrs/ospp/rt-thread/bsp/toolchain/riscv64-linux-musleabi_for_x86_64-pc-linux-gnu/bin/../lib/gcc/riscv64-unknown-linux-musl/10.1.0/libgcc.a(fixtfsi.o)
 .debug_info    0x00000000000073e4      0x224 /home/zbtrs/ospp/rt-thread/bsp/toolchain/riscv64-linux-musleabi_for_x86_64-pc-linux-gnu/bin/../lib/gcc/riscv64-unknown-linux-musl/10.1.0/libgcc.a(fixunstfsi.o)
 .debug_info    0x0000000000007608      0x2e2 /home/zbtrs/ospp/rt-thread/bsp/toolchain/riscv64-linux-musleabi_for_x86_64-pc-linux-gnu/bin/../lib/gcc/riscv64-unknown-linux-musl/10.1.0/libgcc.a(floatsitf.o)
 .debug_info    0x00000000000078ea      0x2cd /home/zbtrs/ospp/rt-thread/bsp/toolchain/riscv64-linux-musleabi_for_x86_64-pc-linux-gnu/bin/../lib/gcc/riscv64-unknown-linux-musl/10.1.0/libgcc.a(floatunsitf.o)
 .debug_info    0x0000000000007bb7      0x2d1 /home/zbtrs/ospp/rt-thread/bsp/toolchain/riscv64-linux-musleabi_for_x86_64-pc-linux-gnu/bin/../lib/gcc/riscv64-unknown-linux-musl/10.1.0/libgcc.a(extenddftf2.o)
 .debug_info    0x0000000000007e88      0x166 /home/zbtrs/ospp/rt-thread/bsp/toolchain/riscv64-linux-musleabi_for_x86_64-pc-linux-gnu/bin/../lib/gcc/riscv64-unknown-linux-musl/10.1.0/libgcc.a(_clzsi2.o)
 .debug_info    0x0000000000007fee       0xe9 /home/zbtrs/ospp/rt-thread/bsp/toolchain/riscv64-linux-musleabi_for_x86_64-pc-linux-gnu/bin/../lib/gcc/riscv64-unknown-linux-musl/10.1.0/libgcc.a(_clz.o)

.debug_abbrev   0x0000000000000000     0x1b33
 .debug_abbrev  0x0000000000000000      0x128 /home/zbtrs/ospp/userapps/sdk/rt-thread/lib/risc-v/rv64gc//librtthread.a(rt_channel.o)
 .debug_abbrev  0x0000000000000128      0x114 /home/zbtrs/ospp/userapps/sdk/rt-thread/lib/risc-v/rv64gc//librtthread.a(rt_completion.o)
 .debug_abbrev  0x000000000000023c      0x151 /home/zbtrs/ospp/userapps/sdk/rt-thread/lib/risc-v/rv64gc//librtthread.a(rt_device.o)
 .debug_abbrev  0x000000000000038d       0x26 /home/zbtrs/ospp/userapps/sdk/rt-thread/lib/risc-v/rv64gc//librtthread.a(rt_ipc.o)
 .debug_abbrev  0x00000000000003b3      0x1c5 /home/zbtrs/ospp/userapps/sdk/rt-thread/lib/risc-v/rv64gc//librtthread.a(rt_net.o)
 .debug_abbrev  0x0000000000000578      0x19a /home/zbtrs/ospp/userapps/sdk/rt-thread/lib/risc-v/rv64gc//librtthread.a(rt_syscall.o)
 .debug_abbrev  0x0000000000000712      0x1eb /home/zbtrs/ospp/userapps/sdk/rt-thread/lib/risc-v/rv64gc//librtthread.a(rt_thread.o)
 .debug_abbrev  0x00000000000008fd      0x2d2 /home/zbtrs/ospp/userapps/sdk/rt-thread/lib/risc-v/rv64gc//librtthread.a(rt_timer.o)
 .debug_abbrev  0x0000000000000bcf      0x12d /home/zbtrs/ospp/userapps/sdk/rt-thread/lib/risc-v/rv64gc//librtthread.a(stub.o)
 .debug_abbrev  0x0000000000000cfc       0x3b /tmp/cc2olldp.o
 .debug_abbrev  0x0000000000000d37      0x177 /home/zbtrs/ospp/rt-thread/bsp/toolchain/riscv64-linux-musleabi_for_x86_64-pc-linux-gnu/bin/../lib/gcc/riscv64-unknown-linux-musl/10.1.0/libgcc.a(addtf3.o)
 .debug_abbrev  0x0000000000000eae      0x169 /home/zbtrs/ospp/rt-thread/bsp/toolchain/riscv64-linux-musleabi_for_x86_64-pc-linux-gnu/bin/../lib/gcc/riscv64-unknown-linux-musl/10.1.0/libgcc.a(eqtf2.o)
 .debug_abbrev  0x0000000000001017      0x18e /home/zbtrs/ospp/rt-thread/bsp/toolchain/riscv64-linux-musleabi_for_x86_64-pc-linux-gnu/bin/../lib/gcc/riscv64-unknown-linux-musl/10.1.0/libgcc.a(multf3.o)
 .debug_abbrev  0x00000000000011a5      0x177 /home/zbtrs/ospp/rt-thread/bsp/toolchain/riscv64-linux-musleabi_for_x86_64-pc-linux-gnu/bin/../lib/gcc/riscv64-unknown-linux-musl/10.1.0/libgcc.a(subtf3.o)
 .debug_abbrev  0x000000000000131c      0x157 /home/zbtrs/ospp/rt-thread/bsp/toolchain/riscv64-linux-musleabi_for_x86_64-pc-linux-gnu/bin/../lib/gcc/riscv64-unknown-linux-musl/10.1.0/libgcc.a(fixtfsi.o)
 .debug_abbrev  0x0000000000001473      0x15e /home/zbtrs/ospp/rt-thread/bsp/toolchain/riscv64-linux-musleabi_for_x86_64-pc-linux-gnu/bin/../lib/gcc/riscv64-unknown-linux-musl/10.1.0/libgcc.a(fixunstfsi.o)
 .debug_abbrev  0x00000000000015d1      0x175 /home/zbtrs/ospp/rt-thread/bsp/toolchain/riscv64-linux-musleabi_for_x86_64-pc-linux-gnu/bin/../lib/gcc/riscv64-unknown-linux-musl/10.1.0/libgcc.a(floatsitf.o)
 .debug_abbrev  0x0000000000001746      0x175 /home/zbtrs/ospp/rt-thread/bsp/toolchain/riscv64-linux-musleabi_for_x86_64-pc-linux-gnu/bin/../lib/gcc/riscv64-unknown-linux-musl/10.1.0/libgcc.a(floatunsitf.o)
 .debug_abbrev  0x00000000000018bb      0x14d /home/zbtrs/ospp/rt-thread/bsp/toolchain/riscv64-linux-musleabi_for_x86_64-pc-linux-gnu/bin/../lib/gcc/riscv64-unknown-linux-musl/10.1.0/libgcc.a(extenddftf2.o)
 .debug_abbrev  0x0000000000001a08       0xbb /home/zbtrs/ospp/rt-thread/bsp/toolchain/riscv64-linux-musleabi_for_x86_64-pc-linux-gnu/bin/../lib/gcc/riscv64-unknown-linux-musl/10.1.0/libgcc.a(_clzsi2.o)
 .debug_abbrev  0x0000000000001ac3       0x70 /home/zbtrs/ospp/rt-thread/bsp/toolchain/riscv64-linux-musleabi_for_x86_64-pc-linux-gnu/bin/../lib/gcc/riscv64-unknown-linux-musl/10.1.0/libgcc.a(_clz.o)

.debug_loc      0x0000000000000000     0xe160
 .debug_loc     0x0000000000000000      0x414 /home/zbtrs/ospp/userapps/sdk/rt-thread/lib/risc-v/rv64gc//librtthread.a(rt_channel.o)
 .debug_loc     0x0000000000000414      0x15c /home/zbtrs/ospp/userapps/sdk/rt-thread/lib/risc-v/rv64gc//librtthread.a(rt_completion.o)
 .debug_loc     0x0000000000000570      0x3a0 /home/zbtrs/ospp/userapps/sdk/rt-thread/lib/risc-v/rv64gc//librtthread.a(rt_device.o)
 .debug_loc     0x0000000000000910      0x2be /home/zbtrs/ospp/userapps/sdk/rt-thread/lib/risc-v/rv64gc//librtthread.a(rt_net.o)
 .debug_loc     0x0000000000000bce     0x1384 /home/zbtrs/ospp/userapps/sdk/rt-thread/lib/risc-v/rv64gc//librtthread.a(rt_syscall.o)
 .debug_loc     0x0000000000001f52      0x418 /home/zbtrs/ospp/userapps/sdk/rt-thread/lib/risc-v/rv64gc//librtthread.a(rt_thread.o)
 .debug_loc     0x000000000000236a      0x8a4 /home/zbtrs/ospp/userapps/sdk/rt-thread/lib/risc-v/rv64gc//librtthread.a(rt_timer.o)
 .debug_loc     0x0000000000002c0e      0xa4d /home/zbtrs/ospp/userapps/sdk/rt-thread/lib/risc-v/rv64gc//librtthread.a(stub.o)
 .debug_loc     0x000000000000365b     0x396b /home/zbtrs/ospp/rt-thread/bsp/toolchain/riscv64-linux-musleabi_for_x86_64-pc-linux-gnu/bin/../lib/gcc/riscv64-unknown-linux-musl/10.1.0/libgcc.a(addtf3.o)
 .debug_loc     0x0000000000006fc6      0x2d5 /home/zbtrs/ospp/rt-thread/bsp/toolchain/riscv64-linux-musleabi_for_x86_64-pc-linux-gnu/bin/../lib/gcc/riscv64-unknown-linux-musl/10.1.0/libgcc.a(eqtf2.o)
 .debug_loc     0x000000000000729b     0x24d5 /home/zbtrs/ospp/rt-thread/bsp/toolchain/riscv64-linux-musleabi_for_x86_64-pc-linux-gnu/bin/../lib/gcc/riscv64-unknown-linux-musl/10.1.0/libgcc.a(multf3.o)
 .debug_loc     0x0000000000009770     0x3914 /home/zbtrs/ospp/rt-thread/bsp/toolchain/riscv64-linux-musleabi_for_x86_64-pc-linux-gnu/bin/../lib/gcc/riscv64-unknown-linux-musl/10.1.0/libgcc.a(subtf3.o)
 .debug_loc     0x000000000000d084      0x472 /home/zbtrs/ospp/rt-thread/bsp/toolchain/riscv64-linux-musleabi_for_x86_64-pc-linux-gnu/bin/../lib/gcc/riscv64-unknown-linux-musl/10.1.0/libgcc.a(fixtfsi.o)
 .debug_loc     0x000000000000d4f6      0x3db /home/zbtrs/ospp/rt-thread/bsp/toolchain/riscv64-linux-musleabi_for_x86_64-pc-linux-gnu/bin/../lib/gcc/riscv64-unknown-linux-musl/10.1.0/libgcc.a(fixunstfsi.o)
 .debug_loc     0x000000000000d8d1      0x17c /home/zbtrs/ospp/rt-thread/bsp/toolchain/riscv64-linux-musleabi_for_x86_64-pc-linux-gnu/bin/../lib/gcc/riscv64-unknown-linux-musl/10.1.0/libgcc.a(floatsitf.o)
 .debug_loc     0x000000000000da4d      0x12e /home/zbtrs/ospp/rt-thread/bsp/toolchain/riscv64-linux-musleabi_for_x86_64-pc-linux-gnu/bin/../lib/gcc/riscv64-unknown-linux-musl/10.1.0/libgcc.a(floatunsitf.o)
 .debug_loc     0x000000000000db7b      0x48e /home/zbtrs/ospp/rt-thread/bsp/toolchain/riscv64-linux-musleabi_for_x86_64-pc-linux-gnu/bin/../lib/gcc/riscv64-unknown-linux-musl/10.1.0/libgcc.a(extenddftf2.o)
 .debug_loc     0x000000000000e009      0x157 /home/zbtrs/ospp/rt-thread/bsp/toolchain/riscv64-linux-musleabi_for_x86_64-pc-linux-gnu/bin/../lib/gcc/riscv64-unknown-linux-musl/10.1.0/libgcc.a(_clzsi2.o)

.debug_aranges  0x0000000000000000      0x3d0
 .debug_aranges
                0x0000000000000000       0x30 /home/zbtrs/ospp/userapps/sdk/rt-thread/lib/risc-v/rv64gc//librtthread.a(rt_channel.o)
 .debug_aranges
                0x0000000000000030       0x30 /home/zbtrs/ospp/userapps/sdk/rt-thread/lib/risc-v/rv64gc//librtthread.a(rt_completion.o)
 .debug_aranges
                0x0000000000000060       0x30 /home/zbtrs/ospp/userapps/sdk/rt-thread/lib/risc-v/rv64gc//librtthread.a(rt_device.o)
 .debug_aranges
                0x0000000000000090       0x20 /home/zbtrs/ospp/userapps/sdk/rt-thread/lib/risc-v/rv64gc//librtthread.a(rt_ipc.o)
 .debug_aranges
                0x00000000000000b0       0x30 /home/zbtrs/ospp/userapps/sdk/rt-thread/lib/risc-v/rv64gc//librtthread.a(rt_net.o)
 .debug_aranges
                0x00000000000000e0       0x30 /home/zbtrs/ospp/userapps/sdk/rt-thread/lib/risc-v/rv64gc//librtthread.a(rt_syscall.o)
 .debug_aranges
                0x0000000000000110       0x30 /home/zbtrs/ospp/userapps/sdk/rt-thread/lib/risc-v/rv64gc//librtthread.a(rt_thread.o)
 .debug_aranges
                0x0000000000000140       0x30 /home/zbtrs/ospp/userapps/sdk/rt-thread/lib/risc-v/rv64gc//librtthread.a(rt_timer.o)
 .debug_aranges
                0x0000000000000170       0x30 /home/zbtrs/ospp/userapps/sdk/rt-thread/lib/risc-v/rv64gc//librtthread.a(stub.o)
 .debug_aranges
                0x00000000000001a0       0x30 /tmp/cc2olldp.o
 .debug_aranges
                0x00000000000001d0       0x30 /home/zbtrs/ospp/rt-thread/bsp/toolchain/riscv64-linux-musleabi_for_x86_64-pc-linux-gnu/bin/../lib/gcc/riscv64-unknown-linux-musl/10.1.0/libgcc.a(addtf3.o)
 .debug_aranges
                0x0000000000000200       0x30 /home/zbtrs/ospp/rt-thread/bsp/toolchain/riscv64-linux-musleabi_for_x86_64-pc-linux-gnu/bin/../lib/gcc/riscv64-unknown-linux-musl/10.1.0/libgcc.a(eqtf2.o)
 .debug_aranges
                0x0000000000000230       0x30 /home/zbtrs/ospp/rt-thread/bsp/toolchain/riscv64-linux-musleabi_for_x86_64-pc-linux-gnu/bin/../lib/gcc/riscv64-unknown-linux-musl/10.1.0/libgcc.a(multf3.o)
 .debug_aranges
                0x0000000000000260       0x30 /home/zbtrs/ospp/rt-thread/bsp/toolchain/riscv64-linux-musleabi_for_x86_64-pc-linux-gnu/bin/../lib/gcc/riscv64-unknown-linux-musl/10.1.0/libgcc.a(subtf3.o)
 .debug_aranges
                0x0000000000000290       0x30 /home/zbtrs/ospp/rt-thread/bsp/toolchain/riscv64-linux-musleabi_for_x86_64-pc-linux-gnu/bin/../lib/gcc/riscv64-unknown-linux-musl/10.1.0/libgcc.a(fixtfsi.o)
 .debug_aranges
                0x00000000000002c0       0x30 /home/zbtrs/ospp/rt-thread/bsp/toolchain/riscv64-linux-musleabi_for_x86_64-pc-linux-gnu/bin/../lib/gcc/riscv64-unknown-linux-musl/10.1.0/libgcc.a(fixunstfsi.o)
 .debug_aranges
                0x00000000000002f0       0x30 /home/zbtrs/ospp/rt-thread/bsp/toolchain/riscv64-linux-musleabi_for_x86_64-pc-linux-gnu/bin/../lib/gcc/riscv64-unknown-linux-musl/10.1.0/libgcc.a(floatsitf.o)
 .debug_aranges
                0x0000000000000320       0x30 /home/zbtrs/ospp/rt-thread/bsp/toolchain/riscv64-linux-musleabi_for_x86_64-pc-linux-gnu/bin/../lib/gcc/riscv64-unknown-linux-musl/10.1.0/libgcc.a(floatunsitf.o)
 .debug_aranges
                0x0000000000000350       0x30 /home/zbtrs/ospp/rt-thread/bsp/toolchain/riscv64-linux-musleabi_for_x86_64-pc-linux-gnu/bin/../lib/gcc/riscv64-unknown-linux-musl/10.1.0/libgcc.a(extenddftf2.o)
 .debug_aranges
                0x0000000000000380       0x30 /home/zbtrs/ospp/rt-thread/bsp/toolchain/riscv64-linux-musleabi_for_x86_64-pc-linux-gnu/bin/../lib/gcc/riscv64-unknown-linux-musl/10.1.0/libgcc.a(_clzsi2.o)
 .debug_aranges
                0x00000000000003b0       0x20 /home/zbtrs/ospp/rt-thread/bsp/toolchain/riscv64-linux-musleabi_for_x86_64-pc-linux-gnu/bin/../lib/gcc/riscv64-unknown-linux-musl/10.1.0/libgcc.a(_clz.o)

.debug_line     0x0000000000000000     0x85c4
 .debug_line    0x0000000000000000      0x1e8 /home/zbtrs/ospp/userapps/sdk/rt-thread/lib/risc-v/rv64gc//librtthread.a(rt_channel.o)
 .debug_line    0x00000000000001e8       0xfa /home/zbtrs/ospp/userapps/sdk/rt-thread/lib/risc-v/rv64gc//librtthread.a(rt_completion.o)
 .debug_line    0x00000000000002e2      0x120 /home/zbtrs/ospp/userapps/sdk/rt-thread/lib/risc-v/rv64gc//librtthread.a(rt_device.o)
 .debug_line    0x0000000000000402       0x1d /home/zbtrs/ospp/userapps/sdk/rt-thread/lib/risc-v/rv64gc//librtthread.a(rt_ipc.o)
 .debug_line    0x000000000000041f      0x6c0 /home/zbtrs/ospp/userapps/sdk/rt-thread/lib/risc-v/rv64gc//librtthread.a(rt_net.o)
 .debug_line    0x0000000000000adf      0xc05 /home/zbtrs/ospp/userapps/sdk/rt-thread/lib/risc-v/rv64gc//librtthread.a(rt_syscall.o)
 .debug_line    0x00000000000016e4      0x289 /home/zbtrs/ospp/userapps/sdk/rt-thread/lib/risc-v/rv64gc//librtthread.a(rt_thread.o)
 .debug_line    0x000000000000196d      0x937 /home/zbtrs/ospp/userapps/sdk/rt-thread/lib/risc-v/rv64gc//librtthread.a(rt_timer.o)
 .debug_line    0x00000000000022a4      0x46f /home/zbtrs/ospp/userapps/sdk/rt-thread/lib/risc-v/rv64gc//librtthread.a(stub.o)
 .debug_line    0x0000000000002713       0x52 /tmp/cc2olldp.o
 .debug_line    0x0000000000002765     0x1afa /home/zbtrs/ospp/rt-thread/bsp/toolchain/riscv64-linux-musleabi_for_x86_64-pc-linux-gnu/bin/../lib/gcc/riscv64-unknown-linux-musl/10.1.0/libgcc.a(addtf3.o)
 .debug_line    0x000000000000425f      0x2bb /home/zbtrs/ospp/rt-thread/bsp/toolchain/riscv64-linux-musleabi_for_x86_64-pc-linux-gnu/bin/../lib/gcc/riscv64-unknown-linux-musl/10.1.0/libgcc.a(eqtf2.o)
 .debug_line    0x000000000000451a     0x1453 /home/zbtrs/ospp/rt-thread/bsp/toolchain/riscv64-linux-musleabi_for_x86_64-pc-linux-gnu/bin/../lib/gcc/riscv64-unknown-linux-musl/10.1.0/libgcc.a(multf3.o)
 .debug_line    0x000000000000596d     0x1b9b /home/zbtrs/ospp/rt-thread/bsp/toolchain/riscv64-linux-musleabi_for_x86_64-pc-linux-gnu/bin/../lib/gcc/riscv64-unknown-linux-musl/10.1.0/libgcc.a(subtf3.o)
 .debug_line    0x0000000000007508      0x328 /home/zbtrs/ospp/rt-thread/bsp/toolchain/riscv64-linux-musleabi_for_x86_64-pc-linux-gnu/bin/../lib/gcc/riscv64-unknown-linux-musl/10.1.0/libgcc.a(fixtfsi.o)
 .debug_line    0x0000000000007830      0x29a /home/zbtrs/ospp/rt-thread/bsp/toolchain/riscv64-linux-musleabi_for_x86_64-pc-linux-gnu/bin/../lib/gcc/riscv64-unknown-linux-musl/10.1.0/libgcc.a(fixunstfsi.o)
 .debug_line    0x0000000000007aca      0x252 /home/zbtrs/ospp/rt-thread/bsp/toolchain/riscv64-linux-musleabi_for_x86_64-pc-linux-gnu/bin/../lib/gcc/riscv64-unknown-linux-musl/10.1.0/libgcc.a(floatsitf.o)
 .debug_line    0x0000000000007d1c      0x2b7 /home/zbtrs/ospp/rt-thread/bsp/toolchain/riscv64-linux-musleabi_for_x86_64-pc-linux-gnu/bin/../lib/gcc/riscv64-unknown-linux-musl/10.1.0/libgcc.a(floatunsitf.o)
 .debug_line    0x0000000000007fd3      0x46b /home/zbtrs/ospp/rt-thread/bsp/toolchain/riscv64-linux-musleabi_for_x86_64-pc-linux-gnu/bin/../lib/gcc/riscv64-unknown-linux-musl/10.1.0/libgcc.a(extenddftf2.o)
 .debug_line    0x000000000000843e      0x11c /home/zbtrs/ospp/rt-thread/bsp/toolchain/riscv64-linux-musleabi_for_x86_64-pc-linux-gnu/bin/../lib/gcc/riscv64-unknown-linux-musl/10.1.0/libgcc.a(_clzsi2.o)
 .debug_line    0x000000000000855a       0x6a /home/zbtrs/ospp/rt-thread/bsp/toolchain/riscv64-linux-musleabi_for_x86_64-pc-linux-gnu/bin/../lib/gcc/riscv64-unknown-linux-musl/10.1.0/libgcc.a(_clz.o)

.debug_str      0x0000000000000000     0x26ca
 .debug_str     0x0000000000000000      0xd7f /home/zbtrs/ospp/userapps/sdk/rt-thread/lib/risc-v/rv64gc//librtthread.a(rt_channel.o)
                                        0xde0 (size before relaxing)
 .debug_str     0x0000000000000d7f       0x7e /home/zbtrs/ospp/userapps/sdk/rt-thread/lib/risc-v/rv64gc//librtthread.a(rt_completion.o)
                                        0x1e5 (size before relaxing)
 .debug_str     0x0000000000000dfd      0x332 /home/zbtrs/ospp/userapps/sdk/rt-thread/lib/risc-v/rv64gc//librtthread.a(rt_device.o)
                                       0x10c0 (size before relaxing)
 .debug_str     0x000000000000112f        0xd /home/zbtrs/ospp/userapps/sdk/rt-thread/lib/risc-v/rv64gc//librtthread.a(rt_ipc.o)
                                        0x136 (size before relaxing)
 .debug_str     0x000000000000113c      0x1fb /home/zbtrs/ospp/userapps/sdk/rt-thread/lib/risc-v/rv64gc//librtthread.a(rt_net.o)
                                        0xf1f (size before relaxing)
 .debug_str     0x0000000000001337      0x436 /home/zbtrs/ospp/userapps/sdk/rt-thread/lib/risc-v/rv64gc//librtthread.a(rt_syscall.o)
                                       0x11b8 (size before relaxing)
 .debug_str     0x000000000000176d      0x263 /home/zbtrs/ospp/userapps/sdk/rt-thread/lib/risc-v/rv64gc//librtthread.a(rt_thread.o)
                                       0x1015 (size before relaxing)
 .debug_str     0x00000000000019d0      0x169 /home/zbtrs/ospp/userapps/sdk/rt-thread/lib/risc-v/rv64gc//librtthread.a(rt_timer.o)
                                       0x1142 (size before relaxing)
 .debug_str     0x0000000000001b39      0x183 /home/zbtrs/ospp/userapps/sdk/rt-thread/lib/risc-v/rv64gc//librtthread.a(stub.o)
                                        0x305 (size before relaxing)
 .debug_str     0x0000000000001cbc       0x6f /tmp/cc2olldp.o
                                         0x74 (size before relaxing)
 .debug_str     0x0000000000001d2b      0x2ff /home/zbtrs/ospp/rt-thread/bsp/toolchain/riscv64-linux-musleabi_for_x86_64-pc-linux-gnu/bin/../lib/gcc/riscv64-unknown-linux-musl/10.1.0/libgcc.a(addtf3.o)
                                        0x377 (size before relaxing)
 .debug_str     0x000000000000202a       0x6a /home/zbtrs/ospp/rt-thread/bsp/toolchain/riscv64-linux-musleabi_for_x86_64-pc-linux-gnu/bin/../lib/gcc/riscv64-unknown-linux-musl/10.1.0/libgcc.a(eqtf2.o)
                                        0x288 (size before relaxing)
 .debug_str     0x0000000000002094      0x33d /home/zbtrs/ospp/rt-thread/bsp/toolchain/riscv64-linux-musleabi_for_x86_64-pc-linux-gnu/bin/../lib/gcc/riscv64-unknown-linux-musl/10.1.0/libgcc.a(multf3.o)
                                        0x581 (size before relaxing)
 .debug_str     0x00000000000023d1       0x4d /home/zbtrs/ospp/rt-thread/bsp/toolchain/riscv64-linux-musleabi_for_x86_64-pc-linux-gnu/bin/../lib/gcc/riscv64-unknown-linux-musl/10.1.0/libgcc.a(subtf3.o)
                                        0x377 (size before relaxing)
 .debug_str     0x000000000000241e       0x62 /home/zbtrs/ospp/rt-thread/bsp/toolchain/riscv64-linux-musleabi_for_x86_64-pc-linux-gnu/bin/../lib/gcc/riscv64-unknown-linux-musl/10.1.0/libgcc.a(fixtfsi.o)
                                        0x285 (size before relaxing)
 .debug_str     0x0000000000002480       0x55 /home/zbtrs/ospp/rt-thread/bsp/toolchain/riscv64-linux-musleabi_for_x86_64-pc-linux-gnu/bin/../lib/gcc/riscv64-unknown-linux-musl/10.1.0/libgcc.a(fixunstfsi.o)
                                        0x284 (size before relaxing)
 .debug_str     0x00000000000024d5       0x80 /home/zbtrs/ospp/rt-thread/bsp/toolchain/riscv64-linux-musleabi_for_x86_64-pc-linux-gnu/bin/../lib/gcc/riscv64-unknown-linux-musl/10.1.0/libgcc.a(floatsitf.o)
                                        0x324 (size before relaxing)
 .debug_str     0x0000000000002555       0x57 /home/zbtrs/ospp/rt-thread/bsp/toolchain/riscv64-linux-musleabi_for_x86_64-pc-linux-gnu/bin/../lib/gcc/riscv64-unknown-linux-musl/10.1.0/libgcc.a(floatunsitf.o)
                                        0x321 (size before relaxing)
 .debug_str     0x00000000000025ac       0x91 /home/zbtrs/ospp/rt-thread/bsp/toolchain/riscv64-linux-musleabi_for_x86_64-pc-linux-gnu/bin/../lib/gcc/riscv64-unknown-linux-musl/10.1.0/libgcc.a(extenddftf2.o)
                                        0x2b3 (size before relaxing)
 .debug_str     0x000000000000263d       0x8d /home/zbtrs/ospp/rt-thread/bsp/toolchain/riscv64-linux-musleabi_for_x86_64-pc-linux-gnu/bin/../lib/gcc/riscv64-unknown-linux-musl/10.1.0/libgcc.a(_clzsi2.o)
                                        0x288 (size before relaxing)
 .debug_str     0x00000000000026ca      0x26b /home/zbtrs/ospp/rt-thread/bsp/toolchain/riscv64-linux-musleabi_for_x86_64-pc-linux-gnu/bin/../lib/gcc/riscv64-unknown-linux-musl/10.1.0/libgcc.a(_clz.o)

.debug_frame    0x0000000000000000     0x19e0
 .debug_frame   0x0000000000000000      0x1c0 /home/zbtrs/ospp/userapps/sdk/rt-thread/lib/risc-v/rv64gc//librtthread.a(rt_channel.o)
 .debug_frame   0x00000000000001c0       0xa0 /home/zbtrs/ospp/userapps/sdk/rt-thread/lib/risc-v/rv64gc//librtthread.a(rt_completion.o)
 .debug_frame   0x0000000000000260      0x190 /home/zbtrs/ospp/userapps/sdk/rt-thread/lib/risc-v/rv64gc//librtthread.a(rt_device.o)
 .debug_frame   0x00000000000003f0      0x138 /home/zbtrs/ospp/userapps/sdk/rt-thread/lib/risc-v/rv64gc//librtthread.a(rt_net.o)
 .debug_frame   0x0000000000000528      0x820 /home/zbtrs/ospp/userapps/sdk/rt-thread/lib/risc-v/rv64gc//librtthread.a(rt_syscall.o)
 .debug_frame   0x0000000000000d48      0x1c8 /home/zbtrs/ospp/userapps/sdk/rt-thread/lib/risc-v/rv64gc//librtthread.a(rt_thread.o)
 .debug_frame   0x0000000000000f10      0x3a0 /home/zbtrs/ospp/userapps/sdk/rt-thread/lib/risc-v/rv64gc//librtthread.a(rt_timer.o)
 .debug_frame   0x00000000000012b0      0x460 /home/zbtrs/ospp/userapps/sdk/rt-thread/lib/risc-v/rv64gc//librtthread.a(stub.o)
 .debug_frame   0x0000000000001710       0x40 /tmp/cc2olldp.o
 .debug_frame   0x0000000000001750       0x60 /home/zbtrs/ospp/rt-thread/bsp/toolchain/riscv64-linux-musleabi_for_x86_64-pc-linux-gnu/bin/../lib/gcc/riscv64-unknown-linux-musl/10.1.0/libgcc.a(addtf3.o)
 .debug_frame   0x00000000000017b0       0x28 /home/zbtrs/ospp/rt-thread/bsp/toolchain/riscv64-linux-musleabi_for_x86_64-pc-linux-gnu/bin/../lib/gcc/riscv64-unknown-linux-musl/10.1.0/libgcc.a(eqtf2.o)
 .debug_frame   0x00000000000017d8       0x68 /home/zbtrs/ospp/rt-thread/bsp/toolchain/riscv64-linux-musleabi_for_x86_64-pc-linux-gnu/bin/../lib/gcc/riscv64-unknown-linux-musl/10.1.0/libgcc.a(multf3.o)
 .debug_frame   0x0000000000001840       0x60 /home/zbtrs/ospp/rt-thread/bsp/toolchain/riscv64-linux-musleabi_for_x86_64-pc-linux-gnu/bin/../lib/gcc/riscv64-unknown-linux-musl/10.1.0/libgcc.a(subtf3.o)
 .debug_frame   0x00000000000018a0       0x28 /home/zbtrs/ospp/rt-thread/bsp/toolchain/riscv64-linux-musleabi_for_x86_64-pc-linux-gnu/bin/../lib/gcc/riscv64-unknown-linux-musl/10.1.0/libgcc.a(fixtfsi.o)
 .debug_frame   0x00000000000018c8       0x28 /home/zbtrs/ospp/rt-thread/bsp/toolchain/riscv64-linux-musleabi_for_x86_64-pc-linux-gnu/bin/../lib/gcc/riscv64-unknown-linux-musl/10.1.0/libgcc.a(fixunstfsi.o)
 .debug_frame   0x00000000000018f0       0x40 /home/zbtrs/ospp/rt-thread/bsp/toolchain/riscv64-linux-musleabi_for_x86_64-pc-linux-gnu/bin/../lib/gcc/riscv64-unknown-linux-musl/10.1.0/libgcc.a(floatsitf.o)
 .debug_frame   0x0000000000001930       0x38 /home/zbtrs/ospp/rt-thread/bsp/toolchain/riscv64-linux-musleabi_for_x86_64-pc-linux-gnu/bin/../lib/gcc/riscv64-unknown-linux-musl/10.1.0/libgcc.a(floatunsitf.o)
 .debug_frame   0x0000000000001968       0x50 /home/zbtrs/ospp/rt-thread/bsp/toolchain/riscv64-linux-musleabi_for_x86_64-pc-linux-gnu/bin/../lib/gcc/riscv64-unknown-linux-musl/10.1.0/libgcc.a(extenddftf2.o)
 .debug_frame   0x00000000000019b8       0x28 /home/zbtrs/ospp/rt-thread/bsp/toolchain/riscv64-linux-musleabi_for_x86_64-pc-linux-gnu/bin/../lib/gcc/riscv64-unknown-linux-musl/10.1.0/libgcc.a(_clzsi2.o)

.debug_ranges   0x0000000000000000     0x21a0
 .debug_ranges  0x0000000000000000       0x60 /home/zbtrs/ospp/userapps/sdk/rt-thread/lib/risc-v/rv64gc//librtthread.a(rt_timer.o)
 .debug_ranges  0x0000000000000060      0xa90 /home/zbtrs/ospp/rt-thread/bsp/toolchain/riscv64-linux-musleabi_for_x86_64-pc-linux-gnu/bin/../lib/gcc/riscv64-unknown-linux-musl/10.1.0/libgcc.a(addtf3.o)
 .debug_ranges  0x0000000000000af0       0xd0 /home/zbtrs/ospp/rt-thread/bsp/toolchain/riscv64-linux-musleabi_for_x86_64-pc-linux-gnu/bin/../lib/gcc/riscv64-unknown-linux-musl/10.1.0/libgcc.a(eqtf2.o)
 .debug_ranges  0x0000000000000bc0      0x6a0 /home/zbtrs/ospp/rt-thread/bsp/toolchain/riscv64-linux-musleabi_for_x86_64-pc-linux-gnu/bin/../lib/gcc/riscv64-unknown-linux-musl/10.1.0/libgcc.a(multf3.o)
 .debug_ranges  0x0000000000001260      0xab0 /home/zbtrs/ospp/rt-thread/bsp/toolchain/riscv64-linux-musleabi_for_x86_64-pc-linux-gnu/bin/../lib/gcc/riscv64-unknown-linux-musl/10.1.0/libgcc.a(subtf3.o)
 .debug_ranges  0x0000000000001d10       0x90 /home/zbtrs/ospp/rt-thread/bsp/toolchain/riscv64-linux-musleabi_for_x86_64-pc-linux-gnu/bin/../lib/gcc/riscv64-unknown-linux-musl/10.1.0/libgcc.a(fixtfsi.o)
 .debug_ranges  0x0000000000001da0       0x40 /home/zbtrs/ospp/rt-thread/bsp/toolchain/riscv64-linux-musleabi_for_x86_64-pc-linux-gnu/bin/../lib/gcc/riscv64-unknown-linux-musl/10.1.0/libgcc.a(fixunstfsi.o)
 .debug_ranges  0x0000000000001de0      0x100 /home/zbtrs/ospp/rt-thread/bsp/toolchain/riscv64-linux-musleabi_for_x86_64-pc-linux-gnu/bin/../lib/gcc/riscv64-unknown-linux-musl/10.1.0/libgcc.a(floatsitf.o)
 .debug_ranges  0x0000000000001ee0      0x180 /home/zbtrs/ospp/rt-thread/bsp/toolchain/riscv64-linux-musleabi_for_x86_64-pc-linux-gnu/bin/../lib/gcc/riscv64-unknown-linux-musl/10.1.0/libgcc.a(floatunsitf.o)
 .debug_ranges  0x0000000000002060      0x100 /home/zbtrs/ospp/rt-thread/bsp/toolchain/riscv64-linux-musleabi_for_x86_64-pc-linux-gnu/bin/../lib/gcc/riscv64-unknown-linux-musl/10.1.0/libgcc.a(extenddftf2.o)
 .debug_ranges  0x0000000000002160       0x40 /home/zbtrs/ospp/rt-thread/bsp/toolchain/riscv64-linux-musleabi_for_x86_64-pc-linux-gnu/bin/../lib/gcc/riscv64-unknown-linux-musl/10.1.0/libgcc.a(_clzsi2.o)
